Certificate:
    Data:
        Version: 3 (0x2)
        Serial Number: 0 (0x0)
        Signature Algorithm: sha256WithRSAEncryption
        Issuer: C=US, O=M2Crypto ca, CN=localhost
        Validity
            Not Before: Apr 29 06:58:18 2013 GMT
            Not After : Apr 27 06:58:18 2023 GMT
        Subject: C=US, O=M2Crypto ca, CN=localhost
        Subject Public Key Info:
            Public Key Algorithm: rsaEncryption
            RSA Public Key: (2048 bit)
                Modulus (2048 bit):
                    00:b8:29:ad:f0:d4:e5:de:4e:d6:98:90:a6:30:91:
                    ba:a9:6f:ba:80:2f:65:99:3e:1f:ab:e2:95:a5:aa:
                    46:80:b8:36:1b:bf:1c:49:bb:3b:76:e5:89:c5:f4:
                    b2:12:a5:6b:b1:41:dd:80:27:a1:f4:ff:a6:5e:e0:
                    14:88:8c:db:81:fa:18:a8:11:e8:28:cf:95:0f:45:
                    c5:8a:b1:69:66:72:5a:9e:04:5d:cc:00:ea:b4:2e:
                    3d:fd:01:a5:30:e3:22:dd:dd:5c:53:86:41:11:d8:
                    89:ed:07:a4:16:c3:6d:b9:6a:d5:bf:2e:63:3f:48:
                    9f:6e:ee:cd:a9:b0:1e:fd:e9:4c:a9:d2:6a:c8:ab:
                    d2:f8:06:2e:b7:a2:6d:45:b4:d2:2c:9d:98:f0:58:
                    d5:8d:4d:a1:e7:86:34:3a:63:03:5c:4d:53:b0:82:
                    a0:93:97:20:d0:74:87:8e:a6:24:b4:72:73:46:64:
                    a7:6a:68:92:45:6f:af:ef:1f:8e:57:0f:53:a1:4c:
                    72:c8:5c:de:d2:5d:5e:40:55:be:68:bf:76:cd:ca:
                    86:ec:00:7e:9f:8b:1b:76:cf:28:7a:52:65:3e:c3:
                    9d:59:8c:28:47:91:28:dc:46:5b:02:4d:fb:c9:dd:
                    59:73:7f:6c:8c:e3:c1:16:30:ba:8d:16:b5:cb:74:
                    0f:cf
                Exponent: 65537 (0x10001)
        X509v3 extensions:
            X509v3 Basic Constraints: 
                CA:TRUE
    Signature Algorithm: sha256WithRSAEncryption
        3f:1a:26:67:5b:28:97:66:53:da:f0:99:85:40:c6:95:de:13:
        aa:2e:89:35:8a:fb:ac:41:35:38:a4:59:f1:18:b1:01:53:97:
        e9:8e:05:ba:26:e3:df:64:1e:39:48:d1:95:a8:53:29:46:bc:
        99:08:01:6c:95:36:ba:0d:d0:ac:4d:e0:63:91:1b:a8:ae:15:
        71:ad:02:45:a8:5d:48:6d:a3:29:20:8b:e8:cd:09:16:fe:9b:
        65:d0:44:9f:d8:41:32:e4:84:82:4a:9e:a6:b1:19:e3:a9:ae:
        4a:b6:d1:3b:43:fb:ca:79:0d:e1:90:d6:6d:39:bb:22:5e:e4:
        e1:74:2a:f0:5f:d9:99:f2:24:ea:49:e0:5f:80:72:7a:be:c5:
        1f:ff:8f:66:ad:8c:dd:40:b0:45:d1:56:b7:22:fc:77:70:1d:
        0c:1d:e7:90:d1:02:30:2c:e2:3d:d9:ca:a2:91:2c:bd:5d:c7:
        8d:68:08:29:3e:13:41:95:37:10:3c:d8:a6:1d:b6:36:78:ba:
        a7:fa:31:ed:97:ac:4f:dc:8b:0b:7c:ff:73:c2:31:00:49:a9:
        cb:da:60:53:94:ab:21:a8:ed:e8:aa:0c:a2:60:6d:ce:12:b5:
        5c:14:0f:cb:96:e4:b7:77:93:18:b1:4e:20:f4:ae:70:18:f8:
        76:75:7b:0f
-----BEGIN CERTIFICATE-----
MIIC+TCCAeGgAwIBAgIBADANBgkqhkiG9w0BAQsFADA3MQswCQYDVQQGEwJVUzEU
MBIGA1UEChMLTTJDcnlwdG8gY2ExEjAQBgNVBAMTCWxvY2FsaG9zdDAeFw0xMzA0
MjkwNjU4MThaFw0yMzA0MjcwNjU4MThaMDcxCzAJBgNVBAYTAlVTMRQwEgYDVQQK
EwtNMkNyeXB0byBjYTESMBAGA1UEAxMJbG9jYWxob3N0MIIBIjANBgkqhkiG9w0B
AQEFAAOCAQ8AMIIBCgKCAQEAuCmt8NTl3k7WmJCmMJG6qW+6gC9lmT4fq+KVpapG
gLg2G78cSbs7duWJxfSyEqVrsUHdgCeh9P+mXuAUiIzbgfoYqBHoKM+VD0XFirFp
ZnJangRdzADqtC49/QGlMOMi3d1cU4ZBEdiJ7QekFsNtuWrVvy5jP0ifbu7NqbAe
/elMqdJqyKvS+AYut6JtRbTSLJ2Y8FjVjU2h54Y0OmMDXE1TsIKgk5cg0HSHjqYk
tHJzRmSnamiSRW+v7x+OVw9ToUxyyFze0l1eQFW+aL92zcqG7AB+n4sbds8oelJl
PsOdWYwoR5Eo3EZbAk37yd1Zc39sjOPBFjC6jRa1y3QPzwIDAQABoxAwDjAMBgNV
HRMEBTADAQH/MA0GCSqGSIb3DQEBCwUAA4IBAQA/GiZnWyiXZlPa8JmFQMaV3hOq
Lok1ivusQTU4pFnxGLEBU5fpjgW6JuPfZB45SNGVqFMpRryZCAFslTa6DdCsTeBj
kRuorhVxrQJFqF1IbaMpIIvozQkW/ptl0ESf2EEy5ISCSp6msRnjqa5KttE7Q/vK
eQ3hkNZtObsiXuThdCrwX9mZ8iTqSeBfgHJ6vsUf/49mrYzdQLBF0Va3Ivx3cB0M
HeeQ0QIwLOI92cqikSy9XceNaAgpPhNBlTcQPNimHbY2eLqn+jHtl6xP3IsLfP9z
wjEASanL2mBTlKshqO3oqgyiYG3OErVcFA/LluS3d5MYsU4g9K5wGPh2dXsP
-----END CERTIFICATE-----
-----BEGIN RSA PRIVATE KEY-----
MIIEogIBAAKCAQEAuCmt8NTl3k7WmJCmMJG6qW+6gC9lmT4fq+KVpapGgLg2G78c
Sbs7duWJxfSyEqVrsUHdgCeh9P+mXuAUiIzbgfoYqBHoKM+VD0XFirFpZnJangRd
zADqtC49/QGlMOMi3d1cU4ZBEdiJ7QekFsNtuWrVvy5jP0ifbu7NqbAe/elMqdJq
yKvS+AYut6JtRbTSLJ2Y8FjVjU2h54Y0OmMDXE1TsIKgk5cg0HSHjqYktHJzRmSn
amiSRW+v7x+OVw9ToUxyyFze0l1eQFW+aL92zcqG7AB+n4sbds8oelJlPsOdWYwo
R5Eo3EZbAk37yd1Zc39sjOPBFjC6jRa1y3QPzwIDAQABAoIBAHJQ5PkOnpXNaGYR
vCd//ld41FMHmNB0AKLopq3MMbFrJ6M3kS6ve20FdO0dRIBQkLXaRc1sTJtRKgvQ
ms5caVGYVj/Vxb+3gzaUv9ek4uFF8LwPx81/cDFiVvY7VDgxdg40f0AVoUSbnpo0
2QWMUAr9pyrid5br1JO+xokjm0lOv5cvO9qQRQ+QcBVCZEcFNrYGo5jGkTZwpZhJ
TjlOb/gyFe6wBATgkrucSlnlvs5ejNOb88YZtCd/ima/RJWauN3liKA08qY4I6GH
S/DNH3Y5DBIz9ms4dr4PsddgUdqi1U9RlPPrnaND/tMSpOlh6QhzeMn4fb9cioTg
IFhbBsECgYEA4XtayZm8lEdyXdOUqmGzGTkVAolo+VlMTzML07hFxyE6beksi2/N
hy58rjTBAXfARNTCkA1kdZ60pscjimcIrptDm3tMWRBlt2FxNNNMGo/vj476Xkz8
gRjaNfRle8dcbNHvOBNxlR6rasOTFE7Z/YseUBhYingVsDSWZrMhEG8CgYEA0Ras
0q2QqMHMPw489e+OrZKCCfyf0KSiv1U0Z0aJFkFxHRAZ2WCMM/7YKim1wrKSW2/V
tY8vobtEIfrPXyjmIF25G23g0tAQkpDRT04R/TrTRKttL9bsAH2YN2EUZ5Anpp7k
GkMPHIkhn8JF7rxsGeMT28MG0c6NdUCnSrfr5qECgYBsi5J37G9Qvlg6/MjbgK7U
HJuVngqPxsIqejteT54fr0pOcOqFsWuygNl6j2C+USSYvgdvi1LqIF18z+63CMSw
MYRJTADD+1XMAreZo4JGYzYC2OSEEvGXQByDzsQv4xgGNsW/K/UIwTvp6H5cT103
ZgpQqnetKQPf0GD6zY7ENwKBgFRgUSfHsPvZESJVDZa1sJ8s41tCXf/loGOT78zJ
cyLPD+WJjNTjGFEXQ4ZoRJgoVdWeYOCewrsChjEsNKkTKSLgj4WZJsQMANQUqtLV
D39gUMeCYlKO6bgc9uNKQuC0FLwxnJ1YeG2sjSwaSvxXf0xHDcl+f28FaqJpj9kg
NYthAoGAKQgKMAYx0zQ9BNjcHXxPjM+SOJpcck2F1ek9UHFlC5M9JFZYouqwURXS
o2B/TIQr+qSrRPpchPrM0qjht47+9+soyENO9LZtz7dv1XocwwkID2qyJxggL0VR
OGmQqktciEwwpH+tPcZc34pXMQpStpnxZ+etOpwLjoTVJOxck+c=
-----END RSA PRIVATE KEY-----
