Certificate:
    Data:
        Version: 3 (0x2)
        Serial Number: 0 (0x0)
    Signature Algorithm: sha1WithRSAEncryption
        Issuer: C=US, O=M2Crypto ca, CN=localhost
        Validity
            Not Before: Nov 25 09:53:33 2015 GMT
            Not After : Nov 22 09:53:33 2025 GMT
        Subject: C=US, O=M2Crypto ca, CN=localhost
        Subject Public Key Info:
            Public Key Algorithm: rsaEncryption
                Public-Key: (2048 bit)
                Modulus:
                    00:ac:2d:ba:c7:d4:eb:43:79:61:9b:58:76:08:da:
                    0e:68:e6:9a:45:98:6e:00:1e:43:b7:1e:b2:c7:90:
                    86:65:bf:22:f2:c5:fe:d5:a5:55:4a:25:db:e6:c1:
                    08:61:e0:75:1e:64:88:a9:83:ba:a9:13:e4:11:db:
                    2b:3e:ae:c8:fb:2a:bc:a3:c3:99:20:98:38:f2:45:
                    13:3f:77:40:bb:e4:17:c2:d8:e4:fd:9e:2e:c0:64:
                    8f:77:9d:1c:b3:7b:fe:b4:4a:e5:b2:7b:5e:a5:b1:
                    6f:bb:57:c9:24:34:99:76:43:f3:db:c4:b3:9b:cf:
                    1e:e3:f2:d3:e9:dd:b9:e0:e0:d2:81:12:5b:d1:9a:
                    0c:86:a1:8e:7c:78:75:04:18:b2:b4:ac:23:9c:04:
                    bb:a8:4c:c4:59:3b:a1:c1:79:7d:ee:df:25:ad:2f:
                    9e:32:32:69:91:b8:66:73:1b:fe:82:49:18:b9:37:
                    51:80:73:60:3f:a5:b4:cb:4a:c0:80:90:6c:45:10:
                    60:c9:3b:11:b1:c1:43:a7:14:64:f6:79:ce:35:3e:
                    dd:bf:25:2e:86:e4:58:61:d3:dd:d2:47:5b:5b:53:
                    4b:c6:1a:7f:75:7c:a4:7f:c5:5c:66:90:21:87:71:
                    8f:9a:89:3a:c7:d8:c5:49:9a:25:d3:62:6a:a0:21:
                    1e:1f
                Exponent: 65537 (0x10001)
        X509v3 extensions:
            X509v3 Basic Constraints: 
                CA:TRUE
            X509v3 Subject Key Identifier: 
                CB:9C:7B:A1:83:6E:F8:BA:25:5D:3A:E7:2F:ED:79:97:35:21:33:9E
    Signature Algorithm: sha1WithRSAEncryption
         1f:47:dc:2c:39:3e:26:20:c7:54:78:ca:d8:12:0f:f0:24:78:
         a9:7c:11:7a:45:ef:03:7d:db:92:80:1b:41:17:b2:b8:9a:5d:
         56:e7:37:c8:89:ad:f7:be:48:55:47:71:7a:d3:5e:c6:cc:38:
         70:7c:1e:d1:96:22:5f:69:6a:17:8a:3b:a9:20:87:a0:41:26:
         8d:35:61:96:c5:84:5f:05:c1:9a:f2:08:2c:fd:12:58:51:19:
         24:6a:5f:16:19:41:bf:78:df:d4:b1:c3:0f:7b:2b:25:80:67:
         79:dd:20:d0:dc:a0:27:01:5c:f2:6b:2a:ea:01:25:66:07:de:
         cd:6a:25:4f:10:24:05:ca:01:94:78:4b:a3:9b:03:a7:61:42:
         bd:f4:25:67:95:0e:f5:4e:46:d1:14:91:92:e4:ec:73:7a:62:
         fc:e0:83:0a:ed:68:ad:dd:d7:1c:e6:92:d8:b1:37:b9:d8:87:
         70:b2:a1:1a:a8:21:e8:cc:29:3e:9a:aa:10:ab:73:b6:40:24:
         eb:de:21:5a:68:4c:2a:25:c9:68:09:9b:aa:ea:80:80:03:7d:
         ad:cf:3d:f7:7b:5d:18:ee:8e:84:a0:62:4b:09:02:ad:42:a0:
         d2:6e:aa:24:05:30:5f:47:00:32:77:40:31:60:86:e9:67:bc:
         d3:d7:cf:a1
-----BEGIN CERTIFICATE-----
MIIDGDCCAgCgAwIBAgIBADANBgkqhkiG9w0BAQUFADA3MQswCQYDVQQGEwJVUzEU
MBIGA1UEChMLTTJDcnlwdG8gY2ExEjAQBgNVBAMTCWxvY2FsaG9zdDAeFw0xNTEx
MjUwOTUzMzNaFw0yNTExMjIwOTUzMzNaMDcxCzAJBgNVBAYTAlVTMRQwEgYDVQQK
EwtNMkNyeXB0byBjYTESMBAGA1UEAxMJbG9jYWxob3N0MIIBIjANBgkqhkiG9w0B
AQEFAAOCAQ8AMIIBCgKCAQEArC26x9TrQ3lhm1h2CNoOaOaaRZhuAB5Dtx6yx5CG
Zb8i8sX+1aVVSiXb5sEIYeB1HmSIqYO6qRPkEdsrPq7I+yq8o8OZIJg48kUTP3dA
u+QXwtjk/Z4uwGSPd50cs3v+tErlsntepbFvu1fJJDSZdkPz28Szm88e4/LT6d25
4ODSgRJb0ZoMhqGOfHh1BBiytKwjnAS7qEzEWTuhwXl97t8lrS+eMjJpkbhmcxv+
gkkYuTdRgHNgP6W0y0rAgJBsRRBgyTsRscFDpxRk9nnONT7dvyUuhuRYYdPd0kdb
W1NLxhp/dXykf8VcZpAhh3GPmok6x9jFSZol02JqoCEeHwIDAQABoy8wLTAMBgNV
HRMEBTADAQH/MB0GA1UdDgQWBBTLnHuhg274uiVdOucv7XmXNSEznjANBgkqhkiG
9w0BAQUFAAOCAQEAH0fcLDk+JiDHVHjK2BIP8CR4qXwRekXvA33bkoAbQReyuJpd
Vuc3yImt975IVUdxetNexsw4cHwe0ZYiX2lqF4o7qSCHoEEmjTVhlsWEXwXBmvII
LP0SWFEZJGpfFhlBv3jf1LHDD3srJYBned0g0NygJwFc8msq6gElZgfezWolTxAk
BcoBlHhLo5sDp2FCvfQlZ5UO9U5G0RSRkuTsc3pi/OCDCu1ord3XHOaS2LE3udiH
cLKhGqgh6MwpPpqqEKtztkAk694hWmhMKiXJaAmbquqAgAN9rc8993tdGO6OhKBi
SwkCrUKg0m6qJAUwX0cAMndAMWCG6We809fPoQ==
-----END CERTIFICATE-----
-----BEGIN RSA PRIVATE KEY-----
MIIEpQIBAAKCAQEArC26x9TrQ3lhm1h2CNoOaOaaRZhuAB5Dtx6yx5CGZb8i8sX+
1aVVSiXb5sEIYeB1HmSIqYO6qRPkEdsrPq7I+yq8o8OZIJg48kUTP3dAu+QXwtjk
/Z4uwGSPd50cs3v+tErlsntepbFvu1fJJDSZdkPz28Szm88e4/LT6d254ODSgRJb
0ZoMhqGOfHh1BBiytKwjnAS7qEzEWTuhwXl97t8lrS+eMjJpkbhmcxv+gkkYuTdR
gHNgP6W0y0rAgJBsRRBgyTsRscFDpxRk9nnONT7dvyUuhuRYYdPd0kdbW1NLxhp/
dXykf8VcZpAhh3GPmok6x9jFSZol02JqoCEeHwIDAQABAoIBAQCc1qMXuLn9oqno
yfHrKkaKA9Vvo+Q/s1HXkt0jsGDcefmpz/XMQ2invEjNr/Skw8OrxcQ/NcFolrfg
FBcWaDynnkxrmJb5+++TsJxR6Z1MCgAi+1PMOrU3h+KwAKvOSxq+vKLzrDGRGUpA
Cz0r/8Xy1v9hp5I8UbU/y0iB9fmF/4Ymxlckhp7Ozb+HJ0S5kaCJGrPMuLI9yXN9
agRtLFNsp3xe0VcZy91KjmP+Y0ZLknkeLZ6nqlADG2fJ56aVwArwcStdDAhOqRDG
RqErBcnEe02ZAh6+GUM6nuitGLUIqS8GZql0/Hs8tDhpi80B2dowhnxFTQJLbiec
rNBrzbqhAoGBAOCIu85CjXeKn2Jsg9jECBZLvogjx3xS4gYVKOUBAL3BvmnVeIhw
vp8++2QFvv7lseAE95dzj7zx1t0tVFu2R5IOz4wHmpOCAbiKBeUunm3VEUHubqbk
nPyIUBEAeRpGRGhrWoeJQCev3MyIxj36mrWU1vJvFhwqkVZwP2LK9r6XAoGBAMRO
t/CCwF/Apev98zRO25uVWWAw/fulVYlhJk9AI2UQW76Iy6J3KJQMnkKnPZsF2Mkw
i4W2BbJS6dq5hWwDn9dEorT6v7+a590tIa23yf9BFXCSPAHJv27FGihh2/etvqOd
n0i01RRnwfrm8Ffxf3uPHWQgfjjNLairW5RQKRW5AoGBAMpNaCkm/Z8/XuunKgQc
W8z64eh3lD0H0G36kqYCiVBvR8jDdZ45Nwb0EDzGkJfJDMLytsHWdSOgIh+Vv/QB
/+oxPf7Euxk8gaBre3RK1KPQ3YOx+DCWunsttjYbXwG1Xd1XHHIRz6PyZ9ZBRZyC
NvJz8Fbuj9VA5UIkUHgKttZxAoGBAKVTjoIV/CIoQxS/KUYSa81aOI1UdXKryaAL
m5H++FAzOLD80FMhe6FEBz0nUDDw+aRnJ/oSVDXcsmqs9/sCCmnnugglbbvWoBOb
4NNHB+3bSE0oOzVeTcTiZqc/01uCjh2JsA4xjYrD35CJUj0efDj5TM14uBTqZ9u3
hUchQ5ixAoGANhKmodj8VBWpomcCKOJ+ZXkdhbtlGowX1I5+O/UIy8INa9I7B9sd
zAF6qmTHCXyKJHvQD1W5tBKWkrRhwkNdy0IOnv6bJtRMpAfmD0waPovStnQK0UVu
fQq4G6A7R1csGhoRl8AhE8yYYt99czBwMA/0Vxm+anv2xf5Cp44JiDo=
-----END RSA PRIVATE KEY-----
