Certificate:
    Data:
        Version: 3 (0x2)
        Serial Number: 0 (0x0)
        Signature Algorithm: sha256WithRSAEncryption
        Issuer: C=US, ST=California, O=M2Crypto, CN=Heikki Toivonen
        Validity
            Not Before: Oct  7 15:12:02 2018 GMT
            Not After : Oct  4 15:12:02 2028 GMT
        Subject: C=US, ST=California, O=M2Crypto, CN=Heikki Toivonen
        Subject Public Key Info:
            Public Key Algorithm: rsaEncryption
                RSA Public-Key: (2048 bit)
                Modulus:
                    00:b8:14:c3:7e:10:d4:0e:55:5e:8c:5c:14:07:14:
                    da:a6:32:d4:35:37:23:7c:27:bd:29:69:4a:dd:ee:
                    a7:9f:f3:7f:1b:f4:73:3d:0b:89:6a:a1:f7:35:ac:
                    b0:20:42:b8:e6:f5:36:9f:83:d9:d6:d0:45:b9:60:
                    0c:a9:dd:f6:28:b9:c4:b7:02:ee:63:cc:ba:3a:70:
                    0c:34:75:46:9d:f1:7b:d5:5f:46:17:84:94:fc:00:
                    f6:21:c3:e2:cd:6c:d1:33:bf:d9:c2:1c:5f:c8:af:
                    91:20:0b:ed:c9:68:44:00:45:ec:9e:82:5a:62:c2:
                    a7:53:de:58:db:7d:d5:2c:9e:8f:7c:15:b4:34:30:
                    ab:b7:3d:ed:72:a2:5c:4a:51:d1:85:33:ad:e0:23:
                    e9:12:02:b9:64:0b:d8:de:61:f8:d9:18:4e:43:32:
                    73:d0:f2:df:c6:de:28:cf:f5:48:7e:46:7c:85:c6:
                    1e:96:a2:32:b8:16:ff:96:71:81:a7:d1:87:d2:d9:
                    0e:b8:9f:ad:45:14:a1:d3:b9:52:c8:59:63:77:17:
                    fe:22:ac:f9:c1:97:12:97:98:99:ae:ac:48:1b:97:
                    83:fa:88:e0:63:9b:bc:55:ea:e0:c7:ec:55:28:e9:
                    28:2a:b4:be:08:e1:50:43:4e:41:df:10:b7:98:1e:
                    dd:37
                Exponent: 65537 (0x10001)
        X509v3 extensions:
            X509v3 Basic Constraints: 
                CA:TRUE
            X509v3 Subject Key Identifier: 
                49:6E:7E:9B:16:48:9F:E9:B8:A7:DC:7C:0E:73:F6:26:2A:9C:9D:7C
    Signature Algorithm: sha256WithRSAEncryption
         a5:88:b0:1a:e3:fc:89:21:8f:d2:3f:39:5d:bd:84:1c:c9:1b:
         58:16:8d:cc:f7:9d:6d:f1:19:29:05:51:c6:20:c5:cc:00:d5:
         61:5f:8f:de:64:3a:43:81:eb:b2:21:7a:ec:19:6b:21:30:33:
         bc:a3:7b:f7:2a:49:f5:8b:d3:48:dc:65:f0:29:f2:fd:3c:f5:
         03:37:19:a3:56:d5:3c:42:60:29:df:ab:aa:36:95:16:eb:6c:
         f2:2d:22:ca:5c:0d:e7:14:6e:f3:10:70:b9:d2:82:59:68:9e:
         31:9d:39:f2:8a:6e:00:c3:2c:b5:ed:f9:fa:6f:f4:43:f1:98:
         81:f3:89:ef:23:6d:fc:f1:33:2f:d7:fc:cc:28:2a:dd:3e:da:
         27:8a:1f:5e:a9:7a:df:2e:c1:e5:c6:db:a9:74:c2:e2:9c:3e:
         9b:2c:22:b1:2e:5d:90:09:c9:45:95:35:21:ca:08:12:19:4c:
         8d:ca:a5:1d:2b:55:b3:44:d5:43:5d:86:bc:36:4c:e6:7a:29:
         b6:21:ab:e8:a2:23:ec:e4:00:a0:6b:0f:bd:d5:77:64:64:30:
         ed:d7:31:88:18:91:24:08:7b:9b:0f:62:8f:31:5c:11:f1:df:
         d3:2d:e6:52:27:11:a0:8a:f9:5e:a9:a3:ea:e3:0c:83:56:2b:
         95:6b:b9:f6
-----BEGIN CERTIFICATE-----
MIIDSDCCAjCgAwIBAgIBADANBgkqhkiG9w0BAQsFADBPMQswCQYDVQQGEwJVUzET
MBEGA1UECAwKQ2FsaWZvcm5pYTERMA8GA1UECgwITTJDcnlwdG8xGDAWBgNVBAMM
D0hlaWtraSBUb2l2b25lbjAeFw0xODEwMDcxNTEyMDJaFw0yODEwMDQxNTEyMDJa
ME8xCzAJBgNVBAYTAlVTMRMwEQYDVQQIDApDYWxpZm9ybmlhMREwDwYDVQQKDAhN
MkNyeXB0bzEYMBYGA1UEAwwPSGVpa2tpIFRvaXZvbmVuMIIBIjANBgkqhkiG9w0B
AQEFAAOCAQ8AMIIBCgKCAQEAuBTDfhDUDlVejFwUBxTapjLUNTcjfCe9KWlK3e6n
n/N/G/RzPQuJaqH3NaywIEK45vU2n4PZ1tBFuWAMqd32KLnEtwLuY8y6OnAMNHVG
nfF71V9GF4SU/AD2IcPizWzRM7/ZwhxfyK+RIAvtyWhEAEXsnoJaYsKnU95Y233V
LJ6PfBW0NDCrtz3tcqJcSlHRhTOt4CPpEgK5ZAvY3mH42RhOQzJz0PLfxt4oz/VI
fkZ8hcYelqIyuBb/lnGBp9GH0tkOuJ+tRRSh07lSyFljdxf+Iqz5wZcSl5iZrqxI
G5eD+ojgY5u8Vergx+xVKOkoKrS+COFQQ05B3xC3mB7dNwIDAQABoy8wLTAMBgNV
HRMEBTADAQH/MB0GA1UdDgQWBBRJbn6bFkif6bin3HwOc/YmKpydfDANBgkqhkiG
9w0BAQsFAAOCAQEApYiwGuP8iSGP0j85Xb2EHMkbWBaNzPedbfEZKQVRxiDFzADV
YV+P3mQ6Q4HrsiF67BlrITAzvKN79ypJ9YvTSNxl8Cny/Tz1AzcZo1bVPEJgKd+r
qjaVFuts8i0iylwN5xRu8xBwudKCWWieMZ058opuAMMste35+m/0Q/GYgfOJ7yNt
/PEzL9f8zCgq3T7aJ4ofXql63y7B5cbbqXTC4pw+mywisS5dkAnJRZU1IcoIEhlM
jcqlHStVs0TVQ12GvDZM5noptiGr6KIj7OQAoGsPvdV3ZGQw7dcxiBiRJAh7mw9i
jzFcEfHf0y3mUicRoIr5Xqmj6uMMg1YrlWu59g==
-----END CERTIFICATE-----
-----BEGIN RSA PRIVATE KEY-----
MIIEpQIBAAKCAQEAuBTDfhDUDlVejFwUBxTapjLUNTcjfCe9KWlK3e6nn/N/G/Rz
PQuJaqH3NaywIEK45vU2n4PZ1tBFuWAMqd32KLnEtwLuY8y6OnAMNHVGnfF71V9G
F4SU/AD2IcPizWzRM7/ZwhxfyK+RIAvtyWhEAEXsnoJaYsKnU95Y233VLJ6PfBW0
NDCrtz3tcqJcSlHRhTOt4CPpEgK5ZAvY3mH42RhOQzJz0PLfxt4oz/VIfkZ8hcYe
lqIyuBb/lnGBp9GH0tkOuJ+tRRSh07lSyFljdxf+Iqz5wZcSl5iZrqxIG5eD+ojg
Y5u8Vergx+xVKOkoKrS+COFQQ05B3xC3mB7dNwIDAQABAoIBAQCISU8nYbwuVIQo
tO9bAtSS4eT89TK/dAh3xW3ZfBz8rmF4R/adxpHZscp+IblQWTXeQMRNO2gnw5Er
mvIlPaFHK6p5uKDYoLVsGJLgr8c1npkJM32IYe+P2AJio02iu6LzhmHpdepwgZOX
v10wlZJrBVoXTPkwT19lF6R/9NzEJ+qyceixwIUFlqKzFv+LavFL4elP03OVF5Wu
TN2DTaVJzNdpBVGdYKkJX7GhX28/gaDRZw6B2wJoJhl56uhzibNe9Lc0S9nyt+0Y
ARodv5KVTaM07z4LkFQxIliVFJmR8Bin3CHC36K9ike57srkR/BOR13Vxw9EtUHx
tNe11jy5AoGBAOVo1NHwHT7EH06F3O2MvKYJAa5rm8EU9Eq6d70ylVDKHCu2NA9V
KeeUbXxGK9Bk3RhLVevZv870AgZqtD4sUEg3qMrW3ZQHyyAlZq57AAw9GlL8REZv
aWvDE4/fmpNYVyUrpQ9KIyaZa96VZtqUJbLgzcvQsRhiwo2zQAP9UqL9AoGBAM1q
7DJtTqU1Muk5UWc8XS6HxRf0D5c1240UXP1xkRDCfI2lI3AM3sCQ5iKQP/SsOrvK
KgxQDVykdbTqD5F7QDX8BmYTdALzRm/XyqqY52WljDAwNEsdTLPewffDMRhjSBSw
sjPiHMnmXJH+0uKKUrSdvDsElBQASKQ81Ojg+ZlDAoGAS2HiJMYQ5hIN84B7Mze+
uZRWEBleCdk32OJi/DGF7REsppRtkOg8J9OXEnIAba7nE9eVeTWJGJkHnVIsvg1T
qBdaCKUIFF9nOL3xer4CKwNdBg3M5ZQwgO+OGwWvxmEN6bHowBhtan6Zen9/V628
oYXLOgDuYIP7SBKxo133bIUCgYEAj4hTrFSmbFfE0CQF1k3eimHB/R/DORQf6e89
nrYY+A39e/fU0Dmd+A4HUEVc+vjRPWBgiyPwgjhEKvqVkED/t/j2+6JCIMGeCQ5O
hW+72FGZqB42m/nIG7Ld8+KGzpSozBQ/IHOxS/5T1oupDTQ74AqLeO2VDni4SVJc
LrDslwMCgYEArxtk6NGesCUgdCTHEueubcY8VoXn/DOHi1QpqV/Fq93Fs5AkDwle
yI11+KVvXad2UAZI2LcQsN3P12Wdco0ayfHOSpOf8zv1w+/DyDkrcT10ZxgL9EDJ
eBEgQ+XmPoteMubMr6EQrzfXxzKqK/DN+2mq0s7PAFgHOr31g6feLYI=
-----END RSA PRIVATE KEY-----
