Certificate:
    Data:
        Version: 3 (0x2)
        Serial Number: 0 (0x0)
    Signature Algorithm: sha1WithRSAEncryption
        Issuer: C=US, ST=California, O=M2Crypto, CN=Heikki Toivonen
        Validity
            Not Before: Nov 26 21:33:12 2015 GMT
            Not After : Nov 23 21:33:12 2025 GMT
        Subject: C=US, ST=California, O=M2Crypto, CN=Heikki Toivonen
        Subject Public Key Info:
            Public Key Algorithm: rsaEncryption
                Public-Key: (1024 bit)
                Modulus:
                    00:b4:c1:ca:4f:95:3c:05:b2:5f:66:dd:40:4f:e8:
                    67:c7:21:16:35:92:84:04:9b:79:93:9e:70:99:77:
                    62:53:80:89:35:38:a4:fc:61:1f:b5:8c:10:cb:a5:
                    44:a2:d2:73:46:9a:1c:5d:54:1d:6f:23:e9:25:e4:
                    78:79:e9:05:4a:79:7d:b4:4c:db:e1:39:5d:ba:cc:
                    73:b0:67:a8:4f:5d:82:00:b8:6b:31:f3:e6:6e:21:
                    dd:7e:d8:c9:54:55:76:f7:e0:a5:26:26:03:a7:a0:
                    f8:e0:79:09:e3:a1:83:da:a2:c6:be:04:19:ec:aa:
                    ed:48:50:45:33:b1:53:05:a7
                Exponent: 65537 (0x10001)
        X509v3 extensions:
            X509v3 Basic Constraints: 
                CA:TRUE
            X509v3 Subject Key Identifier: 
                F3:5C:99:6F:32:FE:98:E4:34:76:75:9A:45:FB:CC:C1:7C:07:5B:D1
    Signature Algorithm: sha1WithRSAEncryption
         95:9a:3f:ec:3b:dc:fb:64:1c:53:54:10:e5:04:5b:dc:4d:54:
         a7:0f:bf:d4:e4:c2:9d:71:90:ff:eb:93:0b:6d:6f:e4:74:47:
         91:c0:bb:13:c5:4a:ff:c4:87:94:5c:67:57:58:18:c7:49:79:
         70:e3:d3:e5:de:4b:e6:fc:e9:e3:13:a8:3a:c8:05:8e:5a:b3:
         97:f5:b1:66:3d:d7:d7:6c:e8:09:05:e0:34:46:a9:80:e8:52:
         0e:d0:2c:5d:30:a5:fa:fb:27:93:f0:87:fc:fb:11:37:0a:0f:
         2d:7c:2a:eb:c0:04:81:93:e0:1b:30:d9:cd:f6:07:36:c3:5a:
         cc:2c
-----BEGIN CERTIFICATE-----
MIICQzCCAaygAwIBAgIBADANBgkqhkiG9w0BAQUFADBPMQswCQYDVQQGEwJVUzET
MBEGA1UECBMKQ2FsaWZvcm5pYTERMA8GA1UEChMITTJDcnlwdG8xGDAWBgNVBAMT
D0hlaWtraSBUb2l2b25lbjAeFw0xNTExMjYyMTMzMTJaFw0yNTExMjMyMTMzMTJa
ME8xCzAJBgNVBAYTAlVTMRMwEQYDVQQIEwpDYWxpZm9ybmlhMREwDwYDVQQKEwhN
MkNyeXB0bzEYMBYGA1UEAxMPSGVpa2tpIFRvaXZvbmVuMIGfMA0GCSqGSIb3DQEB
AQUAA4GNADCBiQKBgQC0wcpPlTwFsl9m3UBP6GfHIRY1koQEm3mTnnCZd2JTgIk1
OKT8YR+1jBDLpUSi0nNGmhxdVB1vI+kl5Hh56QVKeX20TNvhOV26zHOwZ6hPXYIA
uGsx8+ZuId1+2MlUVXb34KUmJgOnoPjgeQnjoYPaosa+BBnsqu1IUEUzsVMFpwID
AQABoy8wLTAMBgNVHRMEBTADAQH/MB0GA1UdDgQWBBTzXJlvMv6Y5DR2dZpF+8zB
fAdb0TANBgkqhkiG9w0BAQUFAAOBgQCVmj/sO9z7ZBxTVBDlBFvcTVSnD7/U5MKd
cZD/65MLbW/kdEeRwLsTxUr/xIeUXGdXWBjHSXlw49Pl3kvm/OnjE6g6yAWOWrOX
9bFmPdfXbOgJBeA0RqmA6FIO0CxdMKX6+yeT8If8+xE3Cg8tfCrrwASBk+AbMNnN
9gc2w1rMLA==
-----END CERTIFICATE-----
-----BEGIN RSA PRIVATE KEY-----
MIICXAIBAAKBgQC0wcpPlTwFsl9m3UBP6GfHIRY1koQEm3mTnnCZd2JTgIk1OKT8
YR+1jBDLpUSi0nNGmhxdVB1vI+kl5Hh56QVKeX20TNvhOV26zHOwZ6hPXYIAuGsx
8+ZuId1+2MlUVXb34KUmJgOnoPjgeQnjoYPaosa+BBnsqu1IUEUzsVMFpwIDAQAB
AoGACFRVyk0KMwkBNHBFomkHPznbGCTkSIIRnCfU8H173nUx3W36zFZ9a5REwd2f
yBECluJLJFHX+WMiP0jD9Ho0cCJExPbKmDA8bzl0dkOzFdxiN5RVHYRFUSu/WIL6
7tBWk7Ue/CRN0nHfbs6HEZSXwxsAFMQ/9rIE/GGU95tOVgECQQDkS4uI0qBswvqR
FO9G492f8xqRl8axgXpElOfSxGS1t3ewpLuW9nGCuUsBkK9ilicUTqb/eXlKT+HP
MVjqUjzBAkEAyrFgaTO5ROwskzdyHD63omz+sBdqdrXeaZ2s3bd5sD6mMHOYDgmW
cNKvEe6Dnhgcb1fl0w9qu4NtaDYADV2UZwJBAORDhOjxcOZOriqSPA0tmVNsx4v7
rfed9prMKF9dbzUilNJSZB61mxmSG6Uc/cAdUkXDvsaCtvvOk4GPXdAtGgECQHGl
HCJADuuW47MzDjbJ71oRdIc0yct/UxGyhz7U5VSs+68E0MdmFsRxTBlousEEUcUX
6lL5POWf3dLlHAhiZJcCQD2b6bgZHqlLYCauUQMrlK6PVrem1C3e5voJDhQLq8l3
0ka2fMcGqljXPoj8y83qZR3ZX9dYiYog5PD6EsdJICk=
-----END RSA PRIVATE KEY-----
