Certificate:
    Data:
        Version: 3 (0x2)
        Serial Number: 0 (0x0)
        Signature Algorithm: sha256WithRSAEncryption
        Issuer: C=US, ST=California, O=M2Crypto, CN=Heikki Toivonen
        Validity
            Not Before: Apr 22 14:50:27 2025 GMT
            Not After : Apr 20 14:50:27 2035 GMT
        Subject: C=US, ST=California, O=M2Crypto, CN=Heikki Toivonen
        Subject Public Key Info:
            Public Key Algorithm: rsaEncryption
                RSA Public-Key: (2048 bit)
                Modulus:
                    00:aa:7b:06:6b:1d:10:4c:81:3d:68:32:64:96:70:
                    f1:07:66:b3:b6:b3:1c:79:60:9c:7c:f3:3f:90:db:
                    6b:b0:35:24:17:7c:cd:02:e2:20:06:1f:5d:c7:47:
                    a6:ef:47:50:82:f7:cc:2c:4f:bc:95:a8:2f:47:5c:
                    a9:bf:72:3b:93:48:75:4a:fc:27:ed:10:af:3c:5a:
                    96:95:15:52:03:82:b7:86:3d:c3:ca:ba:14:c4:d4:
                    b2:67:f0:6d:cf:b3:49:88:a3:da:c9:b6:ec:01:c2:
                    fd:93:91:1e:ce:b6:33:ab:26:8e:05:f4:6d:65:57:
                    db:3a:16:9f:a4:68:2f:48:b1:92:e1:64:dd:cf:4f:
                    64:a2:af:ff:24:b1:8d:7e:bd:96:23:f3:11:b7:5b:
                    ee:6c:01:f2:7b:f1:e6:51:ea:c2:3f:2e:d1:57:22:
                    d1:10:0f:a9:6a:37:d4:d5:ef:7a:e8:d6:a2:b3:1d:
                    3f:22:65:40:49:d5:93:92:7c:a7:05:ea:c2:5f:85:
                    c8:5f:c6:2c:54:a0:27:6c:46:0a:05:7c:74:a3:e2:
                    7a:4f:86:97:c4:45:f9:65:41:b5:c9:fd:d9:bb:40:
                    0b:83:05:34:e8:28:88:bf:c4:4f:8f:cb:79:1f:60:
                    c0:a3:ae:53:25:5d:c2:46:aa:49:f8:fc:3a:b1:d8:
                    c1:fd
                Exponent: 65537 (0x10001)
        X509v3 extensions:
            X509v3 Basic Constraints: 
                CA:TRUE
            X509v3 Subject Key Identifier: 
                15:57:F1:3C:CE:3C:71:9A:1F:D4:FE:DB:CF:DD:79:26:06:15:32:06
    Signature Algorithm: sha256WithRSAEncryption
    Signature Value:
        48:18:54:62:d2:1a:6d:81:31:10:56:1a:1c:c7:eb:28:bf:f9:
        c4:99:4a:c4:d3:9c:a3:77:22:cf:c3:31:8f:75:e9:b3:a0:62:
        8c:6c:41:5f:6e:1c:7c:eb:88:e0:d7:8b:36:67:2e:e0:8e:06:
        74:43:e0:c6:ba:a7:79:2c:e0:52:ca:6a:e4:26:7e:64:3e:d5:
        d0:32:ef:d6:e3:e2:4b:d5:d2:02:c5:63:96:b9:6d:d5:60:dc:
        34:32:6a:e6:e0:7c:eb:a1:8f:1e:a8:8e:ad:f1:77:bb:65:3f:
        80:f2:8c:30:29:2c:7b:1f:2c:ff:44:16:58:0d:59:7a:52:1c:
        a6:2d:4e:9b:c8:8c:c3:ef:07:53:77:de:3f:e0:6b:94:dd:4f:
        19:e3:64:ce:e1:b2:29:99:a3:4d:55:39:d6:f1:93:47:6f:43:
        7a:0f:31:73:93:8c:57:52:d9:a1:fb:61:76:cb:56:7e:10:11:
        17:16:b1:2c:87:4e:a2:d1:94:aa:90:af:f4:0d:8b:92:a5:a7:
        a2:2b:fe:ab:36:66:4b:c8:38:d5:04:e4:d5:1f:81:ad:93:49:
        f5:1c:0d:7a:fb:b8:2d:ac:b8:b2:0f:28:76:13:4d:ae:ad:fe:
        3d:3b:14:af:90:92:8e:85:df:39:78:a4:fa:0e:9a:ef:a6:e2:
        bc:c3:0d:c4
-----BEGIN CERTIFICATE-----
MIIDSDCCAjCgAwIBAgIBADANBgkqhkiG9w0BAQsFADBPMQswCQYDVQQGEwJVUzET
MBEGA1UECAwKQ2FsaWZvcm5pYTERMA8GA1UECgwITTJDcnlwdG8xGDAWBgNVBAMM
D0hlaWtraSBUb2l2b25lbjAeFw0yNTA0MjIxNDUwMjdaFw0zNTA0MjAxNDUwMjda
ME8xCzAJBgNVBAYTAlVTMRMwEQYDVQQIDApDYWxpZm9ybmlhMREwDwYDVQQKDAhN
MkNyeXB0bzEYMBYGA1UEAwwPSGVpa2tpIFRvaXZvbmVuMIIBIjANBgkqhkiG9w0B
AQEFAAOCAQ8AMIIBCgKCAQEAqnsGax0QTIE9aDJklnDxB2aztrMceWCcfPM/kNtr
sDUkF3zNAuIgBh9dx0em70dQgvfMLE+8lagvR1ypv3I7k0h1Svwn7RCvPFqWlRVS
A4K3hj3DyroUxNSyZ/Btz7NJiKPaybbsAcL9k5EezrYzqyaOBfRtZVfbOhafpGgv
SLGS4WTdz09koq//JLGNfr2WI/MRt1vubAHye/HmUerCPy7RVyLREA+pajfU1e96
6Naisx0/ImVASdWTknynBerCX4XIX8YsVKAnbEYKBXx0o+J6T4aXxEX5ZUG1yf3Z
u0ALgwU06CiIv8RPj8t5H2DAo65TJV3CRqpJ+Pw6sdjB/QIDAQABoy8wLTAMBgNV
HRMEBTADAQH/MB0GA1UdDgQWBBQVV/E8zjxxmh/U/tvP3XkmBhUyBjANBgkqhkiG
9w0BAQsFAAOCAQEASBhUYtIabYExEFYaHMfrKL/5xJlKxNOco3ciz8Mxj3Xps6Bi
jGxBX24cfOuI4NeLNmcu4I4GdEPgxrqneSzgUspq5CZ+ZD7V0DLv1uPiS9XSAsVj
lrlt1WDcNDJq5uB866GPHqiOrfF3u2U/gPKMMCksex8s/0QWWA1ZelIcpi1Om8iM
w+8HU3feP+BrlN1PGeNkzuGyKZmjTVU51vGTR29Deg8xc5OMV1LZofthdstWfhAR
FxaxLIdOotGUqpCv9A2LkqWnoiv+qzZmS8g41QTk1R+BrZNJ9RwNevu4Lay4sg8o
dhNNrq3+PTsUr5CSjoXfOXik+g6a76bivMMNxA==
-----END CERTIFICATE-----
-----BEGIN RSA PRIVATE KEY-----
MIIEowIBAAKCAQEAqnsGax0QTIE9aDJklnDxB2aztrMceWCcfPM/kNtrsDUkF3zN
AuIgBh9dx0em70dQgvfMLE+8lagvR1ypv3I7k0h1Svwn7RCvPFqWlRVSA4K3hj3D
yroUxNSyZ/Btz7NJiKPaybbsAcL9k5EezrYzqyaOBfRtZVfbOhafpGgvSLGS4WTd
z09koq//JLGNfr2WI/MRt1vubAHye/HmUerCPy7RVyLREA+pajfU1e966Naisx0/
ImVASdWTknynBerCX4XIX8YsVKAnbEYKBXx0o+J6T4aXxEX5ZUG1yf3Zu0ALgwU0
6CiIv8RPj8t5H2DAo65TJV3CRqpJ+Pw6sdjB/QIDAQABAoIBABUgrgj0TyLMGYoi
RKkIUjayma8Yv3yjZoFtvAD90HjD/TcT9mxXDdT0ajDaRmv9EJNKlnkfYKXDdCiJ
6VealpuILVEfsusEWFNIfsT3IXTh7FCssuka6pwCKCINf+5vr7tJY0IAc3s8aSSy
pXjEx958JrnCMxSOMNMgHqTHbKS7eOgnBjdYP9vxPhdoXz4DCFerAr/6p5qtMBa2
b3OlPxRzHtbO5gi2M+8MpZx3+XeLCCjCNRewcUKNpzNnvMUjyosqkqhK5i5P16U9
BQH58R6myx/iwjwPtU82qXT2kpjWrjQWzJLqp8GUaaq6BicMsz2nsZ1pfglEQp/A
2wqN7IECgYEA6/gFVFkBgrY13d995yDgRgKqgvg+vuNoLQloPP88HjZ/TBsPTAIT
C2xw2LmbmDTqPzJr6Ir83KpGmFncgQXQICRPnygXApyjflDbPBaKC/X5RYmpfkL4
K1vKrfVNkCJMRsl3WvHjS5ZnPBXt6M5m68kblUgaErsk3vaP0/BK0fECgYEAuPPW
+8141kFrIC2cVitco9LB9PbLwLuS8GE/phr/Po0foCeIrpwBY0NKZkuuyhHl99ba
4qqmMz3BvDZTnS3KFI2hhXqVDM8O8XEAs931pwGAwhWMV+M0a4qh0A2stUk7KI3G
D53qIHi5U0xcfvJkGwEvux5pVlJF0MDhL9405M0CgYBgB7SriflqZ5rua5jCage7
ljQsTrjCWKu5wF1SjZC6vvT5VP3ZsfJsMLqQCKFAxTAbffqaTY3wg79tGwz42RPF
MOHSZK9QmcyTiHZgMtAFZBoI6ag3wStcAeQu/WiOYtbl6/GN6mjVByWGN2p11yHd
jR+Tlh8+RjkQIAmSd/ULEQKBgAmuCWRoXpioF9k5SeNgpZqVXz1Y5VUS/B/ElzY0
V4OIk00ohIjO9Wuii/RKpb1Bro2IGzCdydEIvGkDVuD1Eox81SVNQxvGgnu0dFr1
lPPGqlx+EDhRVd8DBHEFJjLewE/hC6qpkyVb7Ccl6fli6kZXi435i33PFIRWc/Kz
aIVJAoGBAKj0qeQzuIQLOD//xyYdb8PgTLSC4lw3ol1Uj/QoUPILmfB4S+s1op3q
E44hV8J+JpQi7fbq5Ffmem2lfHwHtjYjwnmwuPKiE1hSpWLaUIZjOhuqGd4TLr24
sh6NaEekgZEE8XJpFL/aFVqZr6HjF4+FW/fGKVKzjvzW93EsOhSf
-----END RSA PRIVATE KEY-----
