Certificate:
    Data:
        Version: 3 (0x2)
        Serial Number: 4 (0x4)
    Signature Algorithm: sha1WithRSAEncryption
        Issuer: C=US, O=M2Crypto ca, CN=localhost
        Validity
            Not Before: Nov 25 09:53:33 2015 GMT
            Not After : Nov 22 09:53:33 2025 GMT
        Subject: C=US, O=M2Crypto recipient, CN=localhost/emailAddress=recipient@example.com
        Subject Public Key Info:
            Public Key Algorithm: rsaEncryption
                Public-Key: (2048 bit)
                Modulus:
                    00:a0:8b:36:9d:89:42:c2:7e:44:e1:f0:12:34:c7:
                    47:00:87:70:b4:10:48:89:f5:45:1e:fb:bf:3b:c2:
                    f7:21:79:52:eb:26:98:d9:a9:ea:91:98:60:9e:8a:
                    a0:f3:53:3b:8b:c0:86:05:06:f9:00:7e:6e:e8:d9:
                    35:71:1f:0d:a2:aa:2d:ac:06:26:a8:79:08:91:f3:
                    45:b6:4a:c5:22:27:e2:21:88:5f:fd:6d:65:68:b3:
                    29:28:34:d2:1f:71:62:bc:c7:2e:93:e7:b3:6c:5b:
                    7d:a4:1c:73:42:50:9b:45:40:48:d8:75:c8:fb:b7:
                    11:02:e5:09:61:8a:1b:b6:62:00:03:f2:d5:1d:65:
                    2a:92:de:5b:5f:22:39:c4:13:47:b0:19:38:c9:4d:
                    09:8c:30:68:3d:54:33:0e:46:04:ef:45:f3:2b:dd:
                    a6:3c:2e:39:e9:72:d6:bb:86:11:f2:ca:b3:47:15:
                    c5:b0:fd:2b:e5:51:bb:c2:8b:07:01:fb:da:5e:46:
                    47:c4:04:a9:24:9a:49:33:25:c3:04:09:db:04:c3:
                    89:00:2d:77:77:60:c7:99:b8:6c:6c:ee:80:6c:83:
                    b2:67:9b:5f:2d:0a:a8:d7:39:f0:d5:44:4f:b6:98:
                    09:f4:59:8a:14:3a:78:86:36:2b:2e:cd:6f:16:72:
                    9f:55
                Exponent: 65537 (0x10001)
        X509v3 extensions:
            X509v3 Basic Constraints: 
                CA:FALSE
            X509v3 Subject Key Identifier: 
                08:E2:7D:A8:3F:05:93:AE:CA:CA:CE:73:8D:DC:65:FB:B9:0B:87:8B
    Signature Algorithm: sha1WithRSAEncryption
         18:c2:e4:64:11:fd:92:8c:b0:67:00:e2:28:be:fd:4c:da:f7:
         9a:4a:32:58:1c:db:aa:64:35:97:15:57:07:ca:a0:11:d3:a4:
         68:01:c3:c8:58:70:d0:ee:7e:97:26:be:de:5e:eb:83:4c:9d:
         a7:04:e7:ce:64:d6:d0:15:a8:e8:0e:a3:2f:9e:af:af:b7:05:
         f7:20:0d:ba:32:ed:5b:33:97:b3:f1:b0:98:63:81:75:1d:2f:
         83:26:e6:f0:7e:dd:aa:58:a7:ce:b6:62:0e:3b:22:07:08:08:
         02:36:82:4d:55:05:ae:5d:cf:84:c1:10:fd:e2:74:db:76:78:
         c2:05:f8:19:63:d7:2b:5a:bf:f7:73:79:73:7d:2e:90:ba:41:
         fb:36:63:cb:76:ce:ec:69:a8:a3:ad:a4:13:fe:b7:66:18:56:
         04:e8:c3:df:79:e0:50:fe:a6:fe:d9:1d:b7:ab:c0:36:ea:f5:
         22:06:91:57:c2:2a:69:72:f2:3e:f3:34:7e:7a:f0:68:84:90:
         56:d1:0e:2e:f3:34:f3:9a:c0:f7:70:e2:6a:fa:af:20:fb:2c:
         cb:19:1e:cd:46:5c:64:b1:2e:4f:9b:d5:dc:d8:ae:6b:61:33:
         78:cc:ac:a3:73:c5:0f:cb:22:5a:d0:3c:30:42:33:48:31:8e:
         44:92:59:66
-----BEGIN CERTIFICATE-----
MIIDQjCCAiqgAwIBAgIBBDANBgkqhkiG9w0BAQUFADA3MQswCQYDVQQGEwJVUzEU
MBIGA1UEChMLTTJDcnlwdG8gY2ExEjAQBgNVBAMTCWxvY2FsaG9zdDAeFw0xNTEx
MjUwOTUzMzNaFw0yNTExMjIwOTUzMzNaMGQxCzAJBgNVBAYTAlVTMRswGQYDVQQK
ExJNMkNyeXB0byByZWNpcGllbnQxEjAQBgNVBAMTCWxvY2FsaG9zdDEkMCIGCSqG
SIb3DQEJARYVcmVjaXBpZW50QGV4YW1wbGUuY29tMIIBIjANBgkqhkiG9w0BAQEF
AAOCAQ8AMIIBCgKCAQEAoIs2nYlCwn5E4fASNMdHAIdwtBBIifVFHvu/O8L3IXlS
6yaY2anqkZhgnoqg81M7i8CGBQb5AH5u6Nk1cR8NoqotrAYmqHkIkfNFtkrFIifi
IYhf/W1laLMpKDTSH3FivMcuk+ezbFt9pBxzQlCbRUBI2HXI+7cRAuUJYYobtmIA
A/LVHWUqkt5bXyI5xBNHsBk4yU0JjDBoPVQzDkYE70XzK92mPC456XLWu4YR8sqz
RxXFsP0r5VG7wosHAfvaXkZHxASpJJpJMyXDBAnbBMOJAC13d2DHmbhsbO6AbIOy
Z5tfLQqo1znw1URPtpgJ9FmKFDp4hjYrLs1vFnKfVQIDAQABoywwKjAJBgNVHRME
AjAAMB0GA1UdDgQWBBQI4n2oPwWTrsrKznON3GX7uQuHizANBgkqhkiG9w0BAQUF
AAOCAQEAGMLkZBH9koywZwDiKL79TNr3mkoyWBzbqmQ1lxVXB8qgEdOkaAHDyFhw
0O5+lya+3l7rg0ydpwTnzmTW0BWo6A6jL56vr7cF9yANujLtWzOXs/GwmGOBdR0v
gybm8H7dqlinzrZiDjsiBwgIAjaCTVUFrl3PhMEQ/eJ023Z4wgX4GWPXK1q/93N5
c30ukLpB+zZjy3bO7Gmoo62kE/63ZhhWBOjD33ngUP6m/tkdt6vANur1IgaRV8Iq
aXLyPvM0fnrwaISQVtEOLvM085rA93DiavqvIPssyxkezUZcZLEuT5vV3Niua2Ez
eMyso3PFD8siWtA8MEIzSDGORJJZZg==
-----END CERTIFICATE-----
-----BEGIN RSA PRIVATE KEY-----
MIIEpAIBAAKCAQEAoIs2nYlCwn5E4fASNMdHAIdwtBBIifVFHvu/O8L3IXlS6yaY
2anqkZhgnoqg81M7i8CGBQb5AH5u6Nk1cR8NoqotrAYmqHkIkfNFtkrFIifiIYhf
/W1laLMpKDTSH3FivMcuk+ezbFt9pBxzQlCbRUBI2HXI+7cRAuUJYYobtmIAA/LV
HWUqkt5bXyI5xBNHsBk4yU0JjDBoPVQzDkYE70XzK92mPC456XLWu4YR8sqzRxXF
sP0r5VG7wosHAfvaXkZHxASpJJpJMyXDBAnbBMOJAC13d2DHmbhsbO6AbIOyZ5tf
LQqo1znw1URPtpgJ9FmKFDp4hjYrLs1vFnKfVQIDAQABAoIBAFc8LhoeCpuadx16
ELqDCg68ib4eFvx3vO5gBwKXJygWP7stBuNHVAF3FhEv7NMrB/EhVPGIX2coTGXU
GRj1sbgQ1q5hzUHAOqrr0JaEPGgZ2eM0skwH1JG2wIdrZD3Xo7pGVQXjYfhgIn45
Q1vmZuiTTMHqBqLYT7MN9zH8FKDd9O0WD6hjp7AWdwp9xlyliuaw0/KO9icOaTRt
EzU88+X2hCOff8W0uwVRyEN2od9EvE439faNLilEb62dMB//88cxY8ctJgcDX95y
yyBnUZY5BCRr9+7qfI6ETvwGIRnf4uadwOhfaJVzTuEEq4nYJKjwHI+H1G7J7Zk1
0GhZW4ECgYEA1ENS5BXx4m3LP9LfjUbWeyUr2XnmBhFkHBcw7rkDtxYqdLuXYfQg
m+TM9BTZMunOC725P81qFB8Ks1NDXNHxxlUsSTPEASB4v1wDH03Bt71X0CgVXs0C
S2fimbByNPzLU5iTKIkOZH6xpjqsEakfkHjG16cwSzv2p/3tCB7TK7UCgYEAwZ/A
In/GJ1RwwyIeiWtUtlAyX3ctumt9MoPR74KgVR3WIOd7SdRpI8PmZLOjLacFWx68
QTt6YxaX8XOm1PWonT83sQVopz0T5RxLPNbLIctQ/dMY3O1v/l6HZ33TxFg6Mb7q
1D8nNo8J38peERNrA3ThxSQT8l3DWEtfGaaSKSECgYB0d9xrun7Wt1fm1VZEtrHJ
MEQ3OGO2wKQlpbP7yRj4xPjWxHf0D3g1Ef5Dj4z+GrwsRRX4pEWodL/yVaWIsMnx
AZsjL3xFAgQ/O8Waz5eTshkU5mmTcvnnVkFIA0EnQe5vGDDm9Q0opzvi8h6oMhxX
sW2pttsQ7P4Sf4ooAoHsYQKBgQCVfCVVPTqZwLpyHJRg2cmEG7RYOeXHCBeXeWgK
Ntpb/HYF31Ey9dfacfMdCgdQRqN+7uK+phHeEGJsWjKSNbrg9B6l/5wFicUjXE3G
AbrAM30rCeAnKPUO+KInR2DINKlxIImiJcO7foFMEqu/GTPEbmej0S/JLZSURVR9
tDkhoQKBgQC3NLgszAMrxZvbr/zaaacR/oEqKH22DfXmg46n3L/HbuhRNcW8XcLp
K9DJBkg6r094Y/Vbt7VZmvYVJHvFbL0svopLvTn31s6MnYbJIOElc/6JQn6KpLAi
0cEG5KNl9rq53ujYzTP0uOcqoNvFoFdq5F9i8DYuQSvJ7C9dt3j2wQ==
-----END RSA PRIVATE KEY-----
