Certificate:
    Data:
        Version: 3 (0x2)
        Serial Number: 4 (0x4)
    Signature Algorithm: sha1WithRSAEncryption
        Issuer: C=US, ST=California, O=M2Crypto, CN=Heikki Toivonen
        Validity
            Not Before: Nov 26 21:33:12 2015 GMT
            Not After : Nov 23 21:33:12 2025 GMT
        Subject: C=US, ST=California, O=M2Crypto, CN=Recipient/emailAddress=recipient@example.com
        Subject Public Key Info:
            Public Key Algorithm: rsaEncryption
                Public-Key: (1024 bit)
                Modulus:
                    00:96:8c:84:8c:7c:18:1a:d3:c2:62:5d:0f:08:a5:
                    98:3d:8b:91:4c:34:6f:cd:15:af:56:1c:7d:f9:36:
                    a6:01:3c:9c:63:cf:20:64:fa:77:24:a5:e1:cb:fe:
                    8f:5a:c0:a8:90:1b:99:a3:02:6a:43:ef:f9:31:ac:
                    79:01:f9:cc:46:11:7c:aa:d1:87:df:95:d4:f1:a4:
                    7a:cb:fc:4c:2e:8b:33:22:f5:33:f8:53:6a:e8:22:
                    48:18:96:f2:49:39:ff:33:99:03:e5:3d:c2:22:52:
                    f1:33:96:20:bc:d1:c8:21:bb:4b:75:3d:2b:3d:51:
                    4e:aa:0f:d5:73:5d:66:44:bf
                Exponent: 65537 (0x10001)
        X509v3 extensions:
            X509v3 Basic Constraints: 
                CA:FALSE
            X509v3 Subject Key Identifier: 
                53:8D:DD:4F:8A:5E:49:19:AB:DC:2F:9D:AB:EA:C7:C3:CA:F6:F5:D4
    Signature Algorithm: sha1WithRSAEncryption
         10:b1:dd:34:bb:97:3e:3e:d8:e0:de:6a:99:c9:be:8c:b7:80:
         c7:1d:30:db:3a:68:d5:a4:d9:02:76:2b:76:62:00:86:30:5a:
         06:03:65:92:b9:00:a4:42:94:5f:74:c6:94:44:2e:8c:07:55:
         f3:c1:6e:7a:0a:17:66:56:ef:50:af:a3:5f:f1:f7:97:66:29:
         d3:b4:14:13:34:79:96:98:ad:58:db:20:e6:fc:fa:70:ac:1c:
         22:90:bf:7b:c3:ea:e3:8a:0a:bd:ba:48:ff:e5:c9:50:83:18:
         d9:1e:61:30:c0:c7:6c:ea:33:fe:d0:fc:a8:1a:f1:9b:a3:dc:
         91:10
-----BEGIN CERTIFICATE-----
MIICYDCCAcmgAwIBAgIBBDANBgkqhkiG9w0BAQUFADBPMQswCQYDVQQGEwJVUzET
MBEGA1UECBMKQ2FsaWZvcm5pYTERMA8GA1UEChMITTJDcnlwdG8xGDAWBgNVBAMT
D0hlaWtraSBUb2l2b25lbjAeFw0xNTExMjYyMTMzMTJaFw0yNTExMjMyMTMzMTJa
MG8xCzAJBgNVBAYTAlVTMRMwEQYDVQQIEwpDYWxpZm9ybmlhMREwDwYDVQQKEwhN
MkNyeXB0bzESMBAGA1UEAxMJUmVjaXBpZW50MSQwIgYJKoZIhvcNAQkBFhVyZWNp
cGllbnRAZXhhbXBsZS5jb20wgZ8wDQYJKoZIhvcNAQEBBQADgY0AMIGJAoGBAJaM
hIx8GBrTwmJdDwilmD2LkUw0b80Vr1Ycffk2pgE8nGPPIGT6dySl4cv+j1rAqJAb
maMCakPv+TGseQH5zEYRfKrRh9+V1PGkesv8TC6LMyL1M/hTaugiSBiW8kk5/zOZ
A+U9wiJS8TOWILzRyCG7S3U9Kz1RTqoP1XNdZkS/AgMBAAGjLDAqMAkGA1UdEwQC
MAAwHQYDVR0OBBYEFFON3U+KXkkZq9wvnavqx8PK9vXUMA0GCSqGSIb3DQEBBQUA
A4GBABCx3TS7lz4+2ODeapnJvoy3gMcdMNs6aNWk2QJ2K3ZiAIYwWgYDZZK5AKRC
lF90xpRELowHVfPBbnoKF2ZW71Cvo1/x95dmKdO0FBM0eZaYrVjbIOb8+nCsHCKQ
v3vD6uOKCr26SP/lyVCDGNkeYTDAx2zqM/7Q/Kga8Zuj3JEQ
-----END CERTIFICATE-----
-----BEGIN RSA PRIVATE KEY-----
MIICXAIBAAKBgQCWjISMfBga08JiXQ8IpZg9i5FMNG/NFa9WHH35NqYBPJxjzyBk
+nckpeHL/o9awKiQG5mjAmpD7/kxrHkB+cxGEXyq0YffldTxpHrL/EwuizMi9TP4
U2roIkgYlvJJOf8zmQPlPcIiUvEzliC80cghu0t1PSs9UU6qD9VzXWZEvwIDAQAB
AoGATd8TNMN/iGjeVBjEjPlyvOrzVhKNfexojEcilgTBa0RZtHrPy8uOUyOGnwjm
R8/9oMTV/G5kXw3CvQH0eaQnF5Ab83YWFhxdj96yxTl94x4UObQCXvN/puyxqxcx
59HNzE7UVLmnVGYKFPVoR3jWYZEDaPMqtMFVKNqSeCWvSaECQQDGHzgWf1/egvhz
94TIIMBmR/P/d6SUxEGDJQ1ekKbFyioArtbWDel9o0NiY4Rs3U9WCOSo+DMbdSYk
8xcSQaPPAkEAwod+FppNBlKRdoN5njBsyu2loLlWPtD7unKLMeEYMmsbm+gxNi+m
IsZzXc0WbsQXy0VA5SCm18bn+VQV/BRcEQJAHGIqmeaDqJAg4hRK3JT8m2qhhS7x
0DJRpGUxhiO5EMsGu3RQ6PezRMGYDMdvGF2YWR4LDD4KrFtbLJ365y2qNwJBAJoj
NDSCtQ+SczJeAQroQfwVjAyrbnw9qYjV5Bd0zXB90BWcSQovfUvGxXkI3YKNHHFz
gXVMhwco03yLNRRVqZECQD3bL7xlxhZ9lPYiL2IKt4+CC7oqjr+02m/C/nyHdfwF
apMtTW/vAlO09PT6IQTWAT1YxsWHWnu4plklK6OsEE8=
-----END RSA PRIVATE KEY-----
