Certificate:
    Data:
        Version: 3 (0x2)
        Serial Number:
            b4:7e:b2:de:87:00:03:0f
        Signature Algorithm: sha1WithRSAEncryption
        Issuer: C=US, ST=California, O=M2Crypto, CN=Heikki Toivonen
        Validity
            Not Before: Nov 21 15:39:34 2012 GMT
            Not After : Jan  8 15:39:34 2023 GMT
        Subject: C=US, ST=California, O=M2Crypto, CN=Recipient/emailAddress=recipient@example.com
        Subject Public Key Info:
            Public Key Algorithm: rsaEncryption
                Public-Key: (1024 bit)
                Modulus:
                    00:ac:b6:2e:f0:34:34:7d:d4:e6:63:79:60:53:b9:
                    fe:91:a5:bf:49:ec:99:4c:33:2f:85:96:55:e8:09:
                    dc:18:47:1a:72:49:04:a2:e8:78:73:57:c7:bb:e9:
                    c7:aa:c5:07:84:14:b6:01:1c:e3:8a:fd:f3:19:01:
                    11:9d:48:bc:24:8a:0f:c6:40:ed:d7:30:b1:92:ab:
                    c2:61:8c:5d:ea:08:c6:c4:d6:a5:22:00:d9:aa:da:
                    57:5d:cc:2f:1a:35:1b:31:de:dc:c7:3b:83:91:38:
                    d9:07:e1:c7:a7:54:bd:94:95:10:c6:2d:dc:00:e1:
                    28:99:b5:3b:28:95:aa:4e:d5
                Exponent: 65537 (0x10001)
        X509v3 extensions:
            X509v3 Basic Constraints: 
                CA:FALSE
            Netscape Comment: 
                OpenSSL Generated Certificate
            X509v3 Subject Key Identifier: 
                CD:26:EB:42:79:6D:04:7F:95:23:46:1E:03:C9:40:2D:D2:00:AE:71
            X509v3 Authority Key Identifier: 
                keyid:80:D9:6A:1E:15:FE:8B:61:51:62:60:4D:B3:CC:95:44:78:2D:89:E6

    Signature Algorithm: sha1WithRSAEncryption
        a9:5e:b2:4c:24:15:dd:49:d1:4d:e3:dd:e3:da:6b:23:99:45:
        2d:a1:84:f2:9b:6e:48:3c:e9:ce:f8:7f:f3:1f:d3:85:99:94:
        7e:19:8c:ca:be:3a:ca:97:b9:de:c8:4f:08:28:fc:7f:24:37:
        95:e1:d5:60:97:07:2b:be:62:f4:02:1d:27:8f:9e:0d:36:1a:
        d5:45:6f:27:c3:34:21:13:1b:28:93:9d:cb:a6:30:0d:8f:4a:
        5f:4c:4a:97:7b:fe:ed:ce:18:84:5a:ec:4f:f8:84:2e:cb:72:
        28:90:cb:e3:5a:f4:83:16:bd:a8:ef:f0:f5:12:6c:26:3e:af:
        c7:a8
-----BEGIN CERTIFICATE-----
MIICtzCCAiCgAwIBAgIJALR+st6HAAMPMA0GCSqGSIb3DQEBBQUAME8xCzAJBgNV
BAYTAlVTMRMwEQYDVQQIDApDYWxpZm9ybmlhMREwDwYDVQQKDAhNMkNyeXB0bzEY
MBYGA1UEAwwPSGVpa2tpIFRvaXZvbmVuMB4XDTEyMTEyMTE1MzkzNFoXDTIzMDEw
ODE1MzkzNFowbzELMAkGA1UEBhMCVVMxEzARBgNVBAgMCkNhbGlmb3JuaWExETAP
BgNVBAoMCE0yQ3J5cHRvMRIwEAYDVQQDDAlSZWNpcGllbnQxJDAiBgkqhkiG9w0B
CQEWFXJlY2lwaWVudEBleGFtcGxlLmNvbTCBnzANBgkqhkiG9w0BAQEFAAOBjQAw
gYkCgYEArLYu8DQ0fdTmY3lgU7n+kaW/SeyZTDMvhZZV6AncGEcackkEouh4c1fH
u+nHqsUHhBS2ARzjiv3zGQERnUi8JIoPxkDt1zCxkqvCYYxd6gjGxNalIgDZqtpX
XcwvGjUbMd7cxzuDkTjZB+HHp1S9lJUQxi3cAOEombU7KJWqTtUCAwEAAaN7MHkw
CQYDVR0TBAIwADAsBglghkgBhvhCAQ0EHxYdT3BlblNTTCBHZW5lcmF0ZWQgQ2Vy
dGlmaWNhdGUwHQYDVR0OBBYEFM0m60J5bQR/lSNGHgPJQC3SAK5xMB8GA1UdIwQY
MBaAFIDZah4V/othUWJgTbPMlUR4LYnmMA0GCSqGSIb3DQEBBQUAA4GBAKleskwk
Fd1J0U3j3ePaayOZRS2hhPKbbkg86c74f/Mf04WZlH4ZjMq+OsqXud7ITwgo/H8k
N5Xh1WCXByu+YvQCHSePng02GtVFbyfDNCETGyiTncumMA2PSl9MSpd7/u3OGIRa
7E/4hC7LciiQy+Na9IMWvajv8PUSbCY+r8eo
-----END CERTIFICATE-----
