Certificate:
    Data:
        Version: 3 (0x2)
        Serial Number: 4 (0x4)
        Signature Algorithm: sha256WithRSAEncryption
        Issuer: C=US, O=M2Crypto ca, CN=localhost
        Validity
            Not Before: Apr 29 06:58:18 2013 GMT
            Not After : Apr 27 06:58:18 2023 GMT
        Subject: C=US, O=M2Crypto recipient, CN=localhost/emailAddress=recipient@example.com
        Subject Public Key Info:
            Public Key Algorithm: rsaEncryption
            RSA Public Key: (2048 bit)
                Modulus (2048 bit):
                    00:b7:fc:ff:93:8e:69:93:82:ca:2e:1d:10:c9:99:
                    65:4a:5a:e4:de:58:32:82:21:1a:0a:e6:bc:ad:bb:
                    2a:28:95:5f:a7:87:74:49:63:62:81:e5:fa:f1:a8:
                    9e:e7:2c:45:75:eb:d9:57:f5:33:dc:ee:a0:fb:21:
                    ab:33:16:37:41:e9:45:96:b1:1d:ce:b0:42:2c:d6:
                    54:7f:9c:fa:37:4f:38:3d:e2:97:99:60:50:4d:56:
                    6e:1e:49:6a:52:05:71:f2:9b:0d:08:af:32:c7:59:
                    b9:36:4d:f7:a6:2c:18:5d:4e:c9:22:59:ad:1c:7d:
                    fd:13:dd:76:cb:d0:fa:12:20:c4:93:17:11:54:19:
                    d6:31:37:f6:d4:73:7d:19:0d:0b:b6:fb:98:df:69:
                    9a:c7:13:b2:c8:f5:7e:e1:1c:3a:2b:e2:48:e4:46:
                    15:01:51:56:10:3e:73:75:44:39:95:bc:64:1a:56:
                    c4:c5:1a:02:67:8c:7d:50:d7:0f:44:1b:31:8d:84:
                    62:1f:d4:e8:fa:87:9f:50:e8:9f:c4:70:17:ec:0f:
                    fa:8b:b0:1c:f8:a9:20:f2:08:1d:d4:55:7e:a9:12:
                    07:83:c2:be:09:3d:3d:fa:0f:d5:59:e1:46:c6:c7:
                    72:1f:88:47:dd:c3:77:1d:fc:c4:e6:e8:a6:7c:c7:
                    29:11
                Exponent: 65537 (0x10001)
    Signature Algorithm: sha256WithRSAEncryption
        00:be:90:db:fe:28:3e:93:79:e4:d5:5e:87:03:75:bb:b7:b0:
        92:5c:bb:b7:a3:a2:49:29:97:70:85:98:ed:e3:db:b7:4e:fc:
        66:2b:71:54:6e:ca:2a:82:26:f6:b6:20:12:a6:41:81:52:eb:
        1b:4b:a0:1b:ff:f8:98:36:ec:df:5f:da:02:cf:cf:48:a6:f2:
        b8:8a:67:69:8d:af:8b:45:26:bd:07:21:f7:20:7e:2e:63:73:
        42:cb:8f:b7:52:3a:cd:6c:14:61:35:a6:a5:33:65:26:3d:13:
        03:b1:31:4c:30:0d:9a:5f:24:f7:1b:c9:d1:6c:07:20:d8:8f:
        2d:11:d7:4f:8a:f4:de:85:67:23:e7:f2:89:31:89:89:ce:e8:
        e7:cf:38:e2:31:3b:ee:28:5e:c9:13:17:89:0f:3c:2e:94:77:
        cb:c7:05:4c:ca:2d:71:0c:14:9e:f9:11:f6:1e:b2:e3:18:72:
        60:db:3c:ce:51:3d:f0:4d:28:77:59:1e:35:5d:8c:0f:88:2e:
        6c:4b:8e:eb:76:a0:67:71:a7:d3:4a:29:77:22:f3:57:c8:a4:
        4a:f8:74:a9:4f:bf:55:a8:a0:a9:9d:85:0a:13:48:63:fc:3b:
        73:21:97:82:4d:af:3e:3b:d9:31:73:9c:f3:4b:9b:08:79:ca:
        3e:2a:b5:ca
-----BEGIN CERTIFICATE-----
MIIDFDCCAfygAwIBAgIBBDANBgkqhkiG9w0BAQsFADA3MQswCQYDVQQGEwJVUzEU
MBIGA1UEChMLTTJDcnlwdG8gY2ExEjAQBgNVBAMTCWxvY2FsaG9zdDAeFw0xMzA0
MjkwNjU4MThaFw0yMzA0MjcwNjU4MThaMGQxCzAJBgNVBAYTAlVTMRswGQYDVQQK
ExJNMkNyeXB0byByZWNpcGllbnQxEjAQBgNVBAMTCWxvY2FsaG9zdDEkMCIGCSqG
SIb3DQEJARYVcmVjaXBpZW50QGV4YW1wbGUuY29tMIIBIjANBgkqhkiG9w0BAQEF
AAOCAQ8AMIIBCgKCAQEAt/z/k45pk4LKLh0QyZllSlrk3lgygiEaCua8rbsqKJVf
p4d0SWNigeX68aie5yxFdevZV/Uz3O6g+yGrMxY3QelFlrEdzrBCLNZUf5z6N084
PeKXmWBQTVZuHklqUgVx8psNCK8yx1m5Nk33piwYXU7JIlmtHH39E912y9D6EiDE
kxcRVBnWMTf21HN9GQ0LtvuY32maxxOyyPV+4Rw6K+JI5EYVAVFWED5zdUQ5lbxk
GlbExRoCZ4x9UNcPRBsxjYRiH9To+oefUOifxHAX7A/6i7Ac+Kkg8ggd1FV+qRIH
g8K+CT09+g/VWeFGxsdyH4hH3cN3HfzE5uimfMcpEQIDAQABMA0GCSqGSIb3DQEB
CwUAA4IBAQAAvpDb/ig+k3nk1V6HA3W7t7CSXLu3o6JJKZdwhZjt49u3TvxmK3FU
bsoqgib2tiASpkGBUusbS6Ab//iYNuzfX9oCz89IpvK4imdpja+LRSa9ByH3IH4u
Y3NCy4+3UjrNbBRhNaalM2UmPRMDsTFMMA2aXyT3G8nRbAcg2I8tEddPivTehWcj
5/KJMYmJzujnzzjiMTvuKF7JExeJDzwulHfLxwVMyi1xDBSe+RH2HrLjGHJg2zzO
UT3wTSh3WR41XYwPiC5sS47rdqBncafTSil3IvNXyKRK+HSpT79VqKCpnYUKE0hj
/DtzIZeCTa8+O9kxc5zzS5sIeco+KrXK
-----END CERTIFICATE-----
-----BEGIN RSA PRIVATE KEY-----
MIIEpAIBAAKCAQEAt/z/k45pk4LKLh0QyZllSlrk3lgygiEaCua8rbsqKJVfp4d0
SWNigeX68aie5yxFdevZV/Uz3O6g+yGrMxY3QelFlrEdzrBCLNZUf5z6N084PeKX
mWBQTVZuHklqUgVx8psNCK8yx1m5Nk33piwYXU7JIlmtHH39E912y9D6EiDEkxcR
VBnWMTf21HN9GQ0LtvuY32maxxOyyPV+4Rw6K+JI5EYVAVFWED5zdUQ5lbxkGlbE
xRoCZ4x9UNcPRBsxjYRiH9To+oefUOifxHAX7A/6i7Ac+Kkg8ggd1FV+qRIHg8K+
CT09+g/VWeFGxsdyH4hH3cN3HfzE5uimfMcpEQIDAQABAoIBAE8rJi4wEW3P0X+W
MisNPnCIPAMQoGsuIy6dqoJ3DuT3oXlM59TMVw7eDuT9UaLXgewD2Dno4LAoXkyx
aCFLZeuOnMsC23icj10LvMBMo7448FJwthrhPqyIjEmr/Xvdq/JglXMvMAJnsTKU
ygNO5g0AYbvOKpcf/04U9ZEuEuzJQeonfAjgyFdAD9UmJmHnDjxBeTg50j8XqZVM
PmbzZSYOSyygMmV1HsDuFRM+YG2FTpHcZnOGXjjyREhKvUtztySdBbuiJBBY3y7+
RZV/4KP2g0WAkFY0kdW23KDZsEp/GkS2F55tbpZCxcuqdFqhfzi8c03Bd/mj8ZWx
EFWCzCECgYEA4Kpbo26VpmMiJBZqei7DyxQi3u0kNnDqv4QdTtFJIgy7oJ290lzV
XVGjytq9ywnif9avMzzQxz6rJW4zoTiUeG7DyOC+p91V6sRxJTDE1PUSal3wUxNj
ELqDlrQ014dvVcujPnb2uI7LN1ET1FURYtma8IZqTuk2FDcp/Y6fwPsCgYEA0aZE
tI54DCVyylffE0FQJoi0XVXPpVOsZM7Zm0xzDEVR7h0IhfyCUwi1nsmN4Pdtkmyp
BKRro5lxdGdCR9x06Brdjek/EmTm6BzwbdVYH7UOM3lQ6UfHsnA7FWYUcQ+hV/5r
fxg4mryq1dLpxTCDpEcORp4dC33M6BV3lCw4GGMCgYB6hAxjLJwJV4g3u82nAbee
GEYH4bRcx+kMNaSx5amHGwB6z2rDvAJS2IGEzxKvFZ3h7xYtz91eukskp1sacTtu
DaFQ+1adPjNrSmMVT+oW4+p9/Opgs3LTnZLC7VTfsCjD1cAZAVD8RkqFyP4STa2k
hVxcDEEO9VibX5XTgyKVXwKBgQC6gU3RyoRlWdM6yt06xfnFrgu2lKY7D6rnq1TO
4T3gBrMSP2XbvH073R2leuzq23LwthXOeW8AhXr28P137FlcOroqivt/I6B/kW8a
ZpcU7f8KL7yZKzAuP8VwDfXVdvAz1bRPxn5kub7Ipe8tazFRLZ03mWWBWZK2TJKq
kIP+vQKBgQCYVMePzB5v7DiA8QK4u98GdE11d7mt09nMeYHURxuutOMYyW8+sLel
ea4S5hjUF09n8Ve6NkZtkw+YVoT3jm+psNQk6FDuqboPPkcUlMsfv0ztpgt1yVKq
wbuozSeXUuwM9yhpUxGNR3GhXgRDlo3ypQwyswaTEdDY4FNxPW52ow==
-----END RSA PRIVATE KEY-----
