Certificate:
    Data:
        Version: 3 (0x2)
        Serial Number: 4 (0x4)
        Signature Algorithm: sha1WithRSAEncryption
        Issuer: C=US, ST=CA, O=M2Crypto CA, CN=localhost
        Validity
            Not Before: Apr 22 04:42:04 2006 GMT
            Not After : Apr 22 04:42:04 2007 GMT
        Subject: C=US, ST=CA, O=M2Crypto Recipient, CN=localhost/emailAddress=recipient@example.com
        Subject Public Key Info:
            Public Key Algorithm: rsaEncryption
            RSA Public Key: (1024 bit)
                Modulus (1024 bit):
                    00:e3:5a:12:73:eb:fb:e3:4e:ba:8c:fb:68:af:bc:
                    87:ee:65:2d:20:d4:80:7d:87:c9:0b:81:a0:32:35:
                    0d:33:52:4b:45:87:d8:02:de:54:c5:e5:7a:70:bd:
                    66:08:6c:a7:4d:da:e5:20:d1:a8:08:e2:22:5e:b4:
                    f2:c8:42:6c:68:96:5b:61:ec:74:e7:99:65:c1:be:
                    a0:a2:df:a9:06:ec:5c:ff:27:88:04:45:f0:af:a2:
                    ea:73:cc:e4:05:cf:c9:39:4c:c4:bd:0b:67:09:6b:
                    45:b9:e5:fd:19:6e:b0:81:fa:f4:ed:69:b4:40:b1:
                    54:e5:f5:35:a6:eb:4f:33:11
                Exponent: 65537 (0x10001)
        X509v3 extensions:
            X509v3 Basic Constraints: 
                CA:FALSE
            Netscape Comment: 
                OpenSSL Generated Certificate
            X509v3 Subject Key Identifier: 
                6B:76:75:DA:A2:DA:DC:41:7B:8E:76:A2:65:BC:BF:AD:6E:18:03:C4
            X509v3 Authority Key Identifier: 
                keyid:5C:F9:C5:9B:B0:02:37:3C:66:73:4D:0E:CB:5A:3D:BB:3A:46:22:DD

    Signature Algorithm: sha1WithRSAEncryption
        0b:e8:23:ff:71:df:0a:bd:db:26:9c:84:5f:98:85:6c:2a:07:
        ad:e8:19:aa:8a:ae:99:8f:5b:1b:cf:df:9e:04:f1:9e:f7:51:
        01:7a:ce:1c:ce:2b:ea:81:58:41:f8:53:06:6e:ba:1f:77:41:
        51:a1:16:e8:53:08:e1:5a:6f:68:e2:18:43:c3:b1:06:25:16:
        f8:5c:d0:39:2b:5b:1d:9a:dc:f3:9a:26:d2:11:09:a1:52:f0:
        32:0a:b4:39:82:08:a8:90:be:d7:43:16:d4:ad:c7:48:39:37:
        dd:17:7a:4f:a6:e0:5b:9c:63:42:bf:65:d9:2e:ca:99:b7:dc:
        e4:04
-----BEGIN CERTIFICATE-----
MIICpjCCAg+gAwIBAgIBBDANBgkqhkiG9w0BAQUFADBEMQswCQYDVQQGEwJVUzEL
MAkGA1UECBMCQ0ExFDASBgNVBAoTC00yQ3J5cHRvIENBMRIwEAYDVQQDEwlsb2Nh
bGhvc3QwHhcNMDYwNDIyMDQ0MjA0WhcNMDcwNDIyMDQ0MjA0WjBxMQswCQYDVQQG
EwJVUzELMAkGA1UECBMCQ0ExGzAZBgNVBAoTEk0yQ3J5cHRvIFJlY2lwaWVudDES
MBAGA1UEAxMJbG9jYWxob3N0MSQwIgYJKoZIhvcNAQkBFhVyZWNpcGllbnRAZXhh
bXBsZS5jb20wgZ8wDQYJKoZIhvcNAQEBBQADgY0AMIGJAoGBAONaEnPr++NOuoz7
aK+8h+5lLSDUgH2HyQuBoDI1DTNSS0WH2ALeVMXlenC9Zghsp03a5SDRqAjiIl60
8shCbGiWW2HsdOeZZcG+oKLfqQbsXP8niARF8K+i6nPM5AXPyTlMxL0LZwlrRbnl
/RlusIH69O1ptECxVOX1NabrTzMRAgMBAAGjezB5MAkGA1UdEwQCMAAwLAYJYIZI
AYb4QgENBB8WHU9wZW5TU0wgR2VuZXJhdGVkIENlcnRpZmljYXRlMB0GA1UdDgQW
BBRrdnXaotrcQXuOdqJlvL+tbhgDxDAfBgNVHSMEGDAWgBRc+cWbsAI3PGZzTQ7L
Wj27OkYi3TANBgkqhkiG9w0BAQUFAAOBgQAL6CP/cd8KvdsmnIRfmIVsKget6Bmq
iq6Zj1sbz9+eBPGe91EBes4czivqgVhB+FMGbrofd0FRoRboUwjhWm9o4hhDw7EG
JRb4XNA5K1sdmtzzmibSEQmhUvAyCrQ5ggiokL7XQxbUrcdIOTfdF3pPpuBbnGNC
v2XZLsqZt9zkBA==
-----END CERTIFICATE-----
