Certificate:
    Data:
        Version: 3 (0x2)
        Serial Number: 4 (0x4)
        Signature Algorithm: sha256WithRSAEncryption
        Issuer: C=US, ST=California, O=M2Crypto, CN=Heikki Toivonen
        Validity
            Not Before: Apr 22 14:50:27 2025 GMT
            Not After : Apr 20 14:50:27 2035 GMT
        Subject: C=US, ST=California, O=M2Crypto, CN=Recipient/emailAddress=recipient@example.com
        Subject Public Key Info:
            Public Key Algorithm: rsaEncryption
                RSA Public-Key: (2048 bit)
                Modulus:
                    00:c1:64:a6:a1:06:62:03:55:8c:72:d7:32:5d:ea:
                    56:ad:b0:64:24:10:d4:70:8c:77:4c:f9:be:b7:29:
                    0e:69:47:1a:89:7c:4e:5c:91:63:17:7b:89:57:18:
                    4f:fa:68:88:46:48:8a:75:c0:5f:6a:7b:88:62:2d:
                    3c:6f:71:82:38:b8:06:a6:bc:1b:c2:74:26:7d:e9:
                    04:c2:dc:2f:2c:1a:7f:77:f3:b6:6f:1e:90:59:d5:
                    4f:8e:28:26:3d:7e:e4:06:5f:0f:77:54:0c:23:1a:
                    72:d0:f9:0a:b8:ca:dd:a3:b4:bd:25:2c:3c:e3:a0:
                    c5:8a:f4:43:be:d7:fc:fd:e7:dc:0a:22:50:1a:58:
                    10:80:0c:f8:5d:16:7b:c8:32:92:d4:de:56:e2:e6:
                    86:4c:bb:20:ef:8d:06:52:ef:3b:7c:a0:20:a5:3c:
                    b1:c0:2e:be:9e:03:47:06:10:72:d8:9d:1b:8b:b1:
                    e2:f9:a8:3a:f2:95:aa:e2:21:02:1a:d6:66:64:91:
                    d1:76:e9:d3:45:32:a8:01:ab:ce:e1:1f:74:b4:ba:
                    d9:3d:d8:13:2b:49:31:74:f5:b6:b2:5c:6d:12:65:
                    27:a3:f2:c8:db:fc:2c:dd:72:13:aa:7c:42:2e:1c:
                    74:3d:fd:6b:f5:b4:0d:89:7a:1f:65:c9:9a:ee:31:
                    60:e3
                Exponent: 65537 (0x10001)
        X509v3 extensions:
            X509v3 Basic Constraints: 
                CA:FALSE
            X509v3 Subject Key Identifier: 
                DC:FC:72:30:A8:30:8D:F5:F5:1B:F6:2C:83:09:A9:36:55:FB:8A:0F
    Signature Algorithm: sha256WithRSAEncryption
    Signature Value:
        4c:e9:dc:20:84:56:fc:5a:9c:7b:8d:85:a2:f5:51:4d:bf:3d:
        3b:31:0e:f6:ff:b6:31:15:2c:8b:2c:73:f6:b2:77:19:5f:60:
        f0:12:b4:2c:1d:1b:4e:76:6e:b9:15:24:c6:78:b6:b1:90:50:
        4c:b8:73:c8:78:2e:05:2c:db:45:4e:f8:34:a0:42:b7:fe:ef:
        1d:9e:2d:21:4e:74:23:63:b1:90:56:20:57:d3:c4:e5:2a:97:
        97:e9:65:8b:03:19:90:b9:43:ec:4d:3b:a6:e1:9e:34:f9:53:
        03:10:a7:67:b6:c7:e6:3b:a0:eb:79:be:45:34:f8:ff:41:3f:
        e2:29:17:17:d9:33:d7:8c:aa:35:a6:3b:c0:7b:49:3e:5f:53:
        9c:91:92:03:12:3c:45:e5:e3:48:d5:a3:7c:9f:52:5a:47:b2:
        f3:09:b3:88:38:14:93:be:c8:91:66:f7:b6:06:2f:69:ab:d5:
        7c:42:59:0d:89:f9:b7:46:c7:e7:cb:c0:1c:e0:e5:82:c0:39:
        8a:2b:12:58:7f:68:7c:a2:b1:fc:07:2e:a5:12:5e:81:b1:8d:
        c5:c8:db:13:0f:66:a7:05:37:e3:31:43:b5:a4:a4:ed:b2:70:
        2b:bd:c3:c2:16:24:ef:bc:c0:45:a6:70:49:2a:c3:59:53:a6:
        ba:8d:9c:57
-----BEGIN CERTIFICATE-----
MIIDZTCCAk2gAwIBAgIBBDANBgkqhkiG9w0BAQsFADBPMQswCQYDVQQGEwJVUzET
MBEGA1UECAwKQ2FsaWZvcm5pYTERMA8GA1UECgwITTJDcnlwdG8xGDAWBgNVBAMM
D0hlaWtraSBUb2l2b25lbjAeFw0yNTA0MjIxNDUwMjdaFw0zNTA0MjAxNDUwMjda
MG8xCzAJBgNVBAYTAlVTMRMwEQYDVQQIDApDYWxpZm9ybmlhMREwDwYDVQQKDAhN
MkNyeXB0bzESMBAGA1UEAwwJUmVjaXBpZW50MSQwIgYJKoZIhvcNAQkBFhVyZWNp
cGllbnRAZXhhbXBsZS5jb20wggEiMA0GCSqGSIb3DQEBAQUAA4IBDwAwggEKAoIB
AQDBZKahBmIDVYxy1zJd6latsGQkENRwjHdM+b63KQ5pRxqJfE5ckWMXe4lXGE/6
aIhGSIp1wF9qe4hiLTxvcYI4uAamvBvCdCZ96QTC3C8sGn9387ZvHpBZ1U+OKCY9
fuQGXw93VAwjGnLQ+Qq4yt2jtL0lLDzjoMWK9EO+1/z959wKIlAaWBCADPhdFnvI
MpLU3lbi5oZMuyDvjQZS7zt8oCClPLHALr6eA0cGEHLYnRuLseL5qDrylariIQIa
1mZkkdF26dNFMqgBq87hH3S0utk92BMrSTF09bayXG0SZSej8sjb/CzdchOqfEIu
HHQ9/Wv1tA2Jeh9lyZruMWDjAgMBAAGjLDAqMAkGA1UdEwQCMAAwHQYDVR0OBBYE
FNz8cjCoMI319Rv2LIMJqTZV+4oPMA0GCSqGSIb3DQEBCwUAA4IBAQBM6dwghFb8
Wpx7jYWi9VFNvz07MQ72/7YxFSyLLHP2sncZX2DwErQsHRtOdm65FSTGeLaxkFBM
uHPIeC4FLNtFTvg0oEK3/u8dni0hTnQjY7GQViBX08TlKpeX6WWLAxmQuUPsTTum
4Z40+VMDEKdntsfmO6Dreb5FNPj/QT/iKRcX2TPXjKo1pjvAe0k+X1OckZIDEjxF
5eNI1aN8n1JaR7LzCbOIOBSTvsiRZve2Bi9pq9V8QlkNifm3Rsfny8Ac4OWCwDmK
KxJYf2h8orH8By6lEl6BsY3FyNsTD2anBTfjMUO1pKTtsnArvcPCFiTvvMBFpnBJ
KsNZU6a6jZxX
-----END CERTIFICATE-----
-----BEGIN RSA PRIVATE KEY-----
MIIEowIBAAKCAQEAwWSmoQZiA1WMctcyXepWrbBkJBDUcIx3TPm+tykOaUcaiXxO
XJFjF3uJVxhP+miIRkiKdcBfanuIYi08b3GCOLgGprwbwnQmfekEwtwvLBp/d/O2
bx6QWdVPjigmPX7kBl8Pd1QMIxpy0PkKuMrdo7S9JSw846DFivRDvtf8/efcCiJQ
GlgQgAz4XRZ7yDKS1N5W4uaGTLsg740GUu87fKAgpTyxwC6+ngNHBhBy2J0bi7Hi
+ag68pWq4iECGtZmZJHRdunTRTKoAavO4R90tLrZPdgTK0kxdPW2slxtEmUno/LI
2/ws3XITqnxCLhx0Pf1r9bQNiXofZcma7jFg4wIDAQABAoIBAENO/iWWHJ/Pcwn3
Nvrz2AYsmbXpu56ObOk4FPYXjoH6stQ+FOHn4gamwuayugdLwX5AuhwAf9UGOLH+
z4V0CqAmAH6ggsLbfRgedT9CthJSCKJditXC2/fAI6e09pY5pzBGfpIICQ9goax0
uRQW2ywieCBLdMe+yXIy0K9H6jAOGwcGAm1/NkOXhhOslRESJYY+VDBXnmOo06hn
aN85ObLepblmtmGS9Z6Ubw4xLDUy1OHK18tZ8P3auJbLAoX49NnAD4pyZcknkGOF
TS5hXmj/p98S7RSHsBjZ2r+sOq9R6QZ9mc5GLKg8S7PJQHDbZv/lg8syyRXFtvSl
WthoQR0CgYEA57O9QhLw8kdQQyO/q1X9rR0ot4uyiHSLqSxLFG2ZlWCzJvZ+aVnY
ujkOrJYHHgROiE8KKwUZKb72ZPFWPQS/7qTPjE76f+5VRI/W82Oza+REfn2w1/ea
5VrQDGWLPUSOISkO6bQwwDZCcVxtwX6IVmXgLvUOGQUtplCxtrllju0CgYEA1ax4
3siyNfpnoIgMB7J5matMTBhFI2liuiQR4KwLLUnGZNOAKH0Jf9+qdcOHw5a9lbdG
GLXC5gnsxAkHIw9ZLQ4X8j47F5GMSahvz5dRxieJzOxxaol7DjGGqBx3jX2kYaj1
8wLTMoii8w/Z/GId0WjW92uzo45im8rUi6l05Q8CgYBAj4ebopV6nL5ThuGARzyh
AO/4fLdpaDgGEm51KbjSs5gXsjU0+7D06rMZCdC/32lWd9eYdxo01J3pMIncBLfK
MigWq2cHQIyHxyCYvt4eoQMoz7L36mlBoRU5bw3mK3UC7mLWYbv3wuaumZeHg89P
a6GU0/lypUu7/N4X0P7oXQKBgQCVtKJ3DMx3rzq9qbQsDGrQNMlfIz4FooeufSkd
bczi7SaYa+sF8x0dv7qxic5sRggMhn0RQQANpnSBoQWkFdPYEmDKs7k5ORu+W8oC
+zUrDXap4htQloRmHGMJE/DbbGUom3W+zoLkjAEHJVsITkIv/zFl5srU1CTYnJKw
S4kAFwKBgCOkRb2OWjam+hXlt5XDc8EjQXR9oEmze0n14bzfKci4irCtwRD0YwH2
BuJOLkGhwZiLMBSTiAjMIGm6g8Qhy+iEmCWfUZgega9iDbr0aHHt14ySGT7nhzK8
y7iPc5n3z0/s3eprxEv9nHo7lotCQlp7q+/8J1a3N4OROwKqWOZ5
-----END RSA PRIVATE KEY-----
