Certificate:
    Data:
        Version: 3 (0x2)
        Serial Number:
            b4:7e:b2:de:87:00:03:0c
        Signature Algorithm: sha1WithRSAEncryption
        Issuer: C=US, ST=California, O=M2Crypto, CN=Heikki Toivonen
        Validity
            Not Before: Nov 21 15:33:54 2012 GMT
            Not After : Jan  8 15:33:54 2023 GMT
        Subject: C=US, ST=California, O=M2Crypto, CN=localhost
        Subject Public Key Info:
            Public Key Algorithm: rsaEncryption
                Public-Key: (1024 bit)
                Modulus:
                    00:dd:9d:eb:7f:82:43:ed:f2:06:1c:1d:b3:fa:e1:
                    41:8a:4b:bd:b4:1d:82:04:ee:63:b3:22:af:cf:94:
                    88:36:52:18:3e:01:b6:37:15:59:93:7f:cc:88:5a:
                    56:ea:02:c1:a2:bd:9f:c2:87:a4:f6:0e:cb:ca:e9:
                    b8:c6:50:3c:87:30:15:7e:e0:4b:1d:b9:5f:8e:4f:
                    2b:af:64:9b:24:14:01:a7:6a:47:ab:72:f5:26:66:
                    a5:73:33:11:bf:81:28:4f:88:14:76:49:e1:7b:ce:
                    b8:11:fd:3c:ad:83:95:8f:be:30:ec:78:ab:d7:68:
                    b9:70:f5:87:7a:96:f7:35:dd
                Exponent: 65537 (0x10001)
        X509v3 extensions:
            X509v3 Basic Constraints: 
                CA:FALSE
            Netscape Comment: 
                OpenSSL Generated Certificate
            X509v3 Subject Key Identifier: 
                14:E4:DE:06:C8:F0:45:E8:3B:FD:48:7A:6C:9C:AC:14:1F:D5:DB:E0
            X509v3 Authority Key Identifier: 
                keyid:80:D9:6A:1E:15:FE:8B:61:51:62:60:4D:B3:CC:95:44:78:2D:89:E6

    Signature Algorithm: sha1WithRSAEncryption
        74:b4:9d:87:61:b0:e5:8e:7b:38:11:1b:26:18:ba:f6:03:38:
        1b:84:3f:be:95:70:eb:d6:1d:2c:d7:1e:d8:b7:26:62:84:db:
        cb:f4:40:6b:af:97:0e:76:5f:fb:da:d7:2b:bb:c8:bd:38:a3:
        02:c1:f2:60:f4:ec:11:d8:81:54:b6:7a:a4:5b:66:72:40:cb:
        72:ff:12:a3:8f:e7:6a:76:73:b3:9f:72:4e:68:40:0c:11:bd:
        bd:4d:93:2e:33:27:7d:8d:0a:93:c2:71:de:4f:a2:58:0c:8e:
        f0:ad:d2:28:05:bc:04:72:30:6d:5b:d1:4e:73:48:f1:1d:83:
        65:a6
-----BEGIN CERTIFICATE-----
MIICkTCCAfqgAwIBAgIJALR+st6HAAMMMA0GCSqGSIb3DQEBBQUAME8xCzAJBgNV
BAYTAlVTMRMwEQYDVQQIDApDYWxpZm9ybmlhMREwDwYDVQQKDAhNMkNyeXB0bzEY
MBYGA1UEAwwPSGVpa2tpIFRvaXZvbmVuMB4XDTEyMTEyMTE1MzM1NFoXDTIzMDEw
ODE1MzM1NFowSTELMAkGA1UEBhMCVVMxEzARBgNVBAgMCkNhbGlmb3JuaWExETAP
BgNVBAoMCE0yQ3J5cHRvMRIwEAYDVQQDDAlsb2NhbGhvc3QwgZ8wDQYJKoZIhvcN
AQEBBQADgY0AMIGJAoGBAN2d63+CQ+3yBhwds/rhQYpLvbQdggTuY7Mir8+UiDZS
GD4BtjcVWZN/zIhaVuoCwaK9n8KHpPYOy8rpuMZQPIcwFX7gSx25X45PK69kmyQU
AadqR6ty9SZmpXMzEb+BKE+IFHZJ4XvOuBH9PK2DlY++MOx4q9douXD1h3qW9zXd
AgMBAAGjezB5MAkGA1UdEwQCMAAwLAYJYIZIAYb4QgENBB8WHU9wZW5TU0wgR2Vu
ZXJhdGVkIENlcnRpZmljYXRlMB0GA1UdDgQWBBQU5N4GyPBF6Dv9SHpsnKwUH9Xb
4DAfBgNVHSMEGDAWgBSA2WoeFf6LYVFiYE2zzJVEeC2J5jANBgkqhkiG9w0BAQUF
AAOBgQB0tJ2HYbDljns4ERsmGLr2AzgbhD++lXDr1h0s1x7YtyZihNvL9EBrr5cO
dl/72tcru8i9OKMCwfJg9OwR2IFUtnqkW2ZyQMty/xKjj+dqdnOzn3JOaEAMEb29
TZMuMyd9jQqTwnHeT6JYDI7wrdIoBbwEcjBtW9FOc0jxHYNlpg==
-----END CERTIFICATE-----
-----BEGIN RSA PRIVATE KEY-----
MIICXAIBAAKBgQDdnet/gkPt8gYcHbP64UGKS720HYIE7mOzIq/PlIg2Uhg+AbY3
FVmTf8yIWlbqAsGivZ/Ch6T2DsvK6bjGUDyHMBV+4EsduV+OTyuvZJskFAGnaker
cvUmZqVzMxG/gShPiBR2SeF7zrgR/Tytg5WPvjDseKvXaLlw9Yd6lvc13QIDAQAB
AoGAIZzWHxzO2MQgkRsgNSj9G9CpESx4j+7oSD82kzFgB30kGCOCU5B1aZ20k+m/
zPZmEBzaolKYfol392rDj7CTvVT5VQh5QzkVeU28iLOBVqUJ1fwh5gBvIy5iEXzo
O58M8y2IDyJ2W84UUtIav8LD3xGKDxD7k14FW5TIwXfCE4ECQQD8gAI7RHfViv0M
9qSsZ7MapR4wwJKolapfHJda8hM+uEaSanJ/2RwAe5mfn92VUubmAG+Xcoe9HR9x
dJQ5hAllAkEA4LBSq3T8+5wNUBE7V9OUP4Eh8ytbEviurNizfM4sBTrsXBVyDoBU
+ji9BCcDtbaB+GewnpsrXeqSJ/eKxMnvGQJALInH2vxwxtIFYMwAsAh6pzCI6sCN
Hf+IVc6NRBV/H4kRqbHtEHATaGJk7qscQsKkx9070dL57nm8mh6eJqcLoQJBALM0
LltNrVBIQF3xwHDl8UFNDvTRSYwyB68YDt+l2Ho7arRu7k8ej6gahLbBHzZY4ARt
PvLhM49uPS/fQTB/FlECQHaIJA/MFMtpFpv2h0Vsq5Rq0kayzFy/1Cf7k+E9wVUg
gqcUvnEaT990We8Ffri/HlBtIuiuC7lVtv7zKu//VHU=
-----END RSA PRIVATE KEY-----
