Certificate:
    Data:
        Version: 3 (0x2)
        Serial Number: 1 (0x1)
    Signature Algorithm: sha1WithRSAEncryption
        Issuer: C=US, ST=California, O=M2Crypto, CN=Heikki Toivonen
        Validity
            Not Before: Nov 26 21:33:12 2015 GMT
            Not After : Nov 23 21:33:12 2025 GMT
        Subject: C=US, ST=California, O=M2Crypto, CN=localhost
        Subject Public Key Info:
            Public Key Algorithm: rsaEncryption
                Public-Key: (1024 bit)
                Modulus:
                    00:e3:10:2a:42:60:bf:b2:a7:d9:66:77:e8:00:d1:
                    3f:52:ad:03:9d:9e:02:11:c6:63:d1:28:71:82:f2:
                    17:e6:25:92:9f:51:5b:36:a7:9b:6a:b1:e2:40:ed:
                    a8:92:48:7e:fd:a4:79:ed:f0:68:5b:7c:5a:ad:b4:
                    8c:b3:d2:33:1d:f9:8e:c5:e6:f3:2f:2a:3a:e7:1a:
                    81:6c:05:d8:03:0b:1b:fe:c8:a9:47:d7:d4:eb:af:
                    79:b3:de:dc:62:83:42:5b:d8:9d:ac:ce:aa:b5:b8:
                    01:28:82:ce:96:20:b4:b7:20:5d:18:cb:38:14:56:
                    bc:8f:80:98:8c:64:92:a4:df
                Exponent: 65537 (0x10001)
        X509v3 extensions:
            X509v3 Basic Constraints: 
                CA:FALSE
            X509v3 Subject Key Identifier: 
                E0:A4:78:68:75:F4:4E:99:88:30:02:0D:4A:21:25:46:0C:0B:8A:29
    Signature Algorithm: sha1WithRSAEncryption
         1e:27:06:b3:3b:2d:b0:94:f3:94:79:8b:37:65:2a:7c:da:e2:
         0b:9d:e0:6a:79:ba:f8:6b:e7:15:91:95:57:d9:95:55:7e:29:
         84:86:54:26:d1:ed:1f:ca:92:cb:89:67:55:90:25:b4:10:06:
         95:56:ae:15:5a:86:de:ae:4b:05:02:7f:c5:33:94:99:bf:2c:
         0d:72:4b:56:2f:cc:b5:97:42:90:cf:46:d3:cd:b5:5d:8a:99:
         29:fb:a6:72:43:dc:40:27:c8:84:78:77:88:00:61:c4:bd:55:
         f5:57:1a:57:f6:49:16:94:f4:32:17:b0:63:90:02:11:39:76:
         14:89
-----BEGIN CERTIFICATE-----
MIICOjCCAaOgAwIBAgIBATANBgkqhkiG9w0BAQUFADBPMQswCQYDVQQGEwJVUzET
MBEGA1UECBMKQ2FsaWZvcm5pYTERMA8GA1UEChMITTJDcnlwdG8xGDAWBgNVBAMT
D0hlaWtraSBUb2l2b25lbjAeFw0xNTExMjYyMTMzMTJaFw0yNTExMjMyMTMzMTJa
MEkxCzAJBgNVBAYTAlVTMRMwEQYDVQQIEwpDYWxpZm9ybmlhMREwDwYDVQQKEwhN
MkNyeXB0bzESMBAGA1UEAxMJbG9jYWxob3N0MIGfMA0GCSqGSIb3DQEBAQUAA4GN
ADCBiQKBgQDjECpCYL+yp9lmd+gA0T9SrQOdngIRxmPRKHGC8hfmJZKfUVs2p5tq
seJA7aiSSH79pHnt8GhbfFqttIyz0jMd+Y7F5vMvKjrnGoFsBdgDCxv+yKlH19Tr
r3mz3txig0Jb2J2szqq1uAEogs6WILS3IF0YyzgUVryPgJiMZJKk3wIDAQABoyww
KjAJBgNVHRMEAjAAMB0GA1UdDgQWBBTgpHhodfROmYgwAg1KISVGDAuKKTANBgkq
hkiG9w0BAQUFAAOBgQAeJwazOy2wlPOUeYs3ZSp82uILneBqebr4a+cVkZVX2ZVV
fimEhlQm0e0fypLLiWdVkCW0EAaVVq4VWoberksFAn/FM5SZvywNcktWL8y1l0KQ
z0bTzbVdipkp+6ZyQ9xAJ8iEeHeIAGHEvVX1VxpX9kkWlPQyF7BjkAIROXYUiQ==
-----END CERTIFICATE-----
-----BEGIN RSA PRIVATE KEY-----
MIICXAIBAAKBgQDjECpCYL+yp9lmd+gA0T9SrQOdngIRxmPRKHGC8hfmJZKfUVs2
p5tqseJA7aiSSH79pHnt8GhbfFqttIyz0jMd+Y7F5vMvKjrnGoFsBdgDCxv+yKlH
19Trr3mz3txig0Jb2J2szqq1uAEogs6WILS3IF0YyzgUVryPgJiMZJKk3wIDAQAB
AoGAeZsfttsP78O7SAixxTZLvqCQjiqgmxpwPQV2/ZVgvU6kHxU4T6YmM1c/gFyH
6ohPEtKyxn75tP19pwhKTsglvUaIgOqiGG19d+RiI6BZ64f3n39daE2NkRrxK/qT
REsjIxVRUJ3XPmu5oRF7CZNvVC5EdfAr/OSwEp6remy5Y/ECQQD6lrkCANiv/+km
4oBeRBrkEzE/T1DelaucTb2mVy0Nb0mNMMKDxlGYbuh75NXov3bAJoJyFe2AAcst
SjjtXkPXAkEA5/dkAjzkokI/E+jZVFETcO69P/h8ymTBuwEGTh11IYOVZu1KkzAY
6y471RUCVQYf3vcJQyw5SWwrENLWIyWGOQJBAJpRTXedW9Pu7f8DR3hFyqWf6BkL
2Epqs3cbLOqODvGSEiJ/35nU/JS54DPD9bNSjWfBj12AgXTuJdgrOCl9fpsCQGGP
33RBgDfufPE2whGAeBjLkLVTIclOT10DtU8tfJI38aJ0syTs2c4wh+G7EFwKU2VH
qZGjDAUhhYtx4baulaECQHce5kyQIEttBf35pEP6YNv6FJX9tTV31Tt2pVoNR78o
0uIgow8nNeuV0uz87AEDRvwTEQ6wNq/DFGAX9De1UL8=
-----END RSA PRIVATE KEY-----
