Certificate:
    Data:
        Version: 3 (0x2)
        Serial Number: 1 (0x1)
    Signature Algorithm: sha1WithRSAEncryption
        Issuer: C=US, O=M2Crypto ca, CN=localhost
        Validity
            Not Before: Nov 25 09:53:33 2015 GMT
            Not After : Nov 22 09:53:33 2025 GMT
        Subject: C=US, O=M2Crypto server, CN=localhost
        Subject Public Key Info:
            Public Key Algorithm: rsaEncryption
                Public-Key: (2048 bit)
                Modulus:
                    00:b6:e3:fc:53:ac:1b:07:00:d0:fe:67:32:bf:06:
                    1b:a7:cb:b3:b1:1b:1e:e4:1f:3a:47:c4:11:b1:98:
                    02:4b:56:48:be:3d:3f:dd:62:47:35:3f:20:d8:2c:
                    26:54:0d:0f:31:ed:7d:39:cb:b8:b8:19:87:0a:23:
                    58:c5:b7:f5:a0:a3:9d:84:d7:99:be:9a:ef:a6:5e:
                    9b:33:15:f0:52:a4:d9:8d:8c:c4:3c:cb:72:71:ff:
                    ac:d6:2c:44:8a:55:62:12:7b:a5:a0:3a:07:0c:69:
                    74:23:b5:2e:a2:18:ae:42:f5:c5:d1:09:da:89:45:
                    f2:57:b3:b5:5a:14:af:a1:db:49:bb:05:92:11:d6:
                    4a:b1:fa:a3:63:da:48:b7:f9:7e:a2:66:98:ea:4f:
                    86:8b:fb:c5:39:74:76:0b:77:19:0c:50:16:0f:93:
                    e8:e0:68:c5:34:05:40:c5:f1:f7:90:38:a1:ac:cf:
                    27:2c:d3:94:c7:03:24:95:07:8a:10:bc:f5:4d:29:
                    e7:e4:8a:69:e6:8e:0c:3e:15:d5:fc:92:d8:40:a6:
                    fb:6c:61:bb:da:a2:54:57:d7:4f:0d:01:b7:f0:8f:
                    94:77:a6:68:7c:45:3e:2a:31:24:d9:2c:44:07:2c:
                    27:92:31:9c:50:dd:50:59:00:ca:4a:56:ea:52:2b:
                    c1:c3
                Exponent: 65537 (0x10001)
        X509v3 extensions:
            X509v3 Basic Constraints: 
                CA:FALSE
            X509v3 Subject Key Identifier: 
                76:F8:21:52:19:69:E9:73:4C:28:29:4B:67:09:5A:A0:9C:83:79:BB
    Signature Algorithm: sha1WithRSAEncryption
         23:19:69:7c:e1:c8:13:2f:a9:ae:0d:32:93:c8:73:9d:bb:80:
         fc:86:37:b8:eb:e7:2d:24:74:4b:43:00:75:54:03:a2:fc:0a:
         62:a2:1a:b2:5d:9b:54:db:b3:e0:56:25:f4:a4:bb:d3:89:51:
         6b:a2:a6:31:93:68:cd:04:f2:a7:9a:a2:ff:13:ea:d0:7e:f3:
         55:28:cf:71:4f:63:43:17:84:01:b9:fd:5e:8c:d2:a6:ef:7e:
         1e:c0:03:10:19:1f:c7:5f:2f:7e:88:84:44:bb:da:49:d4:10:
         02:17:5a:43:af:ef:4d:cb:b9:ef:07:7d:37:87:5d:7e:8f:d0:
         25:58:32:c4:68:a6:45:7d:35:2d:3a:66:ef:99:dc:f9:5d:0f:
         0f:5f:4d:af:58:9d:d5:09:2e:b0:28:de:25:42:09:0b:4d:74:
         07:87:f9:8c:2e:a2:fa:00:20:37:11:8b:e3:51:41:b5:d3:54:
         76:3e:4d:15:87:e0:e3:ef:2f:ba:1f:7e:4e:b4:dd:f6:bd:d2:
         83:1f:0e:14:b7:05:30:9a:41:e4:16:ff:2d:a4:63:b9:dc:87:
         5b:35:3d:0c:39:4c:9a:11:4f:59:2a:27:38:57:6a:15:12:d0:
         af:16:82:bd:ab:93:36:04:b8:ca:ae:4a:65:30:72:8d:34:fa:
         36:95:79:11
-----BEGIN CERTIFICATE-----
MIIDGTCCAgGgAwIBAgIBATANBgkqhkiG9w0BAQUFADA3MQswCQYDVQQGEwJVUzEU
MBIGA1UEChMLTTJDcnlwdG8gY2ExEjAQBgNVBAMTCWxvY2FsaG9zdDAeFw0xNTEx
MjUwOTUzMzNaFw0yNTExMjIwOTUzMzNaMDsxCzAJBgNVBAYTAlVTMRgwFgYDVQQK
Ew9NMkNyeXB0byBzZXJ2ZXIxEjAQBgNVBAMTCWxvY2FsaG9zdDCCASIwDQYJKoZI
hvcNAQEBBQADggEPADCCAQoCggEBALbj/FOsGwcA0P5nMr8GG6fLs7EbHuQfOkfE
EbGYAktWSL49P91iRzU/INgsJlQNDzHtfTnLuLgZhwojWMW39aCjnYTXmb6a76Ze
mzMV8FKk2Y2MxDzLcnH/rNYsRIpVYhJ7paA6BwxpdCO1LqIYrkL1xdEJ2olF8lez
tVoUr6HbSbsFkhHWSrH6o2PaSLf5fqJmmOpPhov7xTl0dgt3GQxQFg+T6OBoxTQF
QMXx95A4oazPJyzTlMcDJJUHihC89U0p5+SKaeaODD4V1fyS2ECm+2xhu9qiVFfX
Tw0Bt/CPlHemaHxFPioxJNksRAcsJ5IxnFDdUFkAykpW6lIrwcMCAwEAAaMsMCow
CQYDVR0TBAIwADAdBgNVHQ4EFgQUdvghUhlp6XNMKClLZwlaoJyDebswDQYJKoZI
hvcNAQEFBQADggEBACMZaXzhyBMvqa4NMpPIc527gPyGN7jr5y0kdEtDAHVUA6L8
CmKiGrJdm1Tbs+BWJfSku9OJUWuipjGTaM0E8qeaov8T6tB+81Uoz3FPY0MXhAG5
/V6M0qbvfh7AAxAZH8dfL36IhES72knUEAIXWkOv703Lue8HfTeHXX6P0CVYMsRo
pkV9NS06Zu+Z3PldDw9fTa9YndUJLrAo3iVCCQtNdAeH+YwuovoAIDcRi+NRQbXT
VHY+TRWH4OPvL7offk603fa90oMfDhS3BTCaQeQW/y2kY7nch1s1PQw5TJoRT1kq
JzhXahUS0K8Wgr2rkzYEuMquSmUwco00+jaVeRE=
-----END CERTIFICATE-----
-----BEGIN RSA PRIVATE KEY-----
MIIEpAIBAAKCAQEAtuP8U6wbBwDQ/mcyvwYbp8uzsRse5B86R8QRsZgCS1ZIvj0/
3WJHNT8g2CwmVA0PMe19Ocu4uBmHCiNYxbf1oKOdhNeZvprvpl6bMxXwUqTZjYzE
PMtycf+s1ixEilViEnuloDoHDGl0I7UuohiuQvXF0QnaiUXyV7O1WhSvodtJuwWS
EdZKsfqjY9pIt/l+omaY6k+Gi/vFOXR2C3cZDFAWD5Po4GjFNAVAxfH3kDihrM8n
LNOUxwMklQeKELz1TSnn5Ipp5o4MPhXV/JLYQKb7bGG72qJUV9dPDQG38I+Ud6Zo
fEU+KjEk2SxEBywnkjGcUN1QWQDKSlbqUivBwwIDAQABAoIBAGfKKkAxw4TN6cz2
M85EYR1wdKFlirpbHm/rzT7DzUmDxfRwPfYc99w33yPOqlG4t47V/+L0wfd4RTJz
rMVICJUJRTNGR3Hr62S2+8yZ/rBn7S5vXE5EBsa7GhLRPHRk0Cs9EFlFlQpuLgK1
p6lF6F8HqyNePC77CvTKf3iHlMR9AEBbo0TJu44x4b8/8kMcO6NQn5eigLmCF6yf
Q/K6/mSLuNgnxHCZkf8quzVo+sBknqj3lec4lTKzMniSxZPCGItH3EWw+m4OIlB4
+VaYIFGF9v1P6NxWhPSJyM9EsNmffyEB2kTmCND7Uxb/wUvnaqUNO+dNaT6laUjF
G4f6IUECgYEA3sRI+9DgrM3cBcPwCQ9xxjHWc2wXa9LasqaLp+POBqKWeZ8bwOxI
E66R/MwUYISwEkNEe7ETh9URXFom3a1PN8M0UbUZ+QgBSRSXWO/MWdopLpdfjujl
Clm8L/CO9GUjoFOq90RoFX8q1xItw3at8tz/yHkQWDiiA3R3J5Xckq8CgYEA0izI
yVoI8ULLhanQsBTMq9UxlCxSenRjTu9C/7NCT9B2gQuHpycTvDLt73MJQYTKz4Z2
lCTP4QkDpJObd/newq2VgBDXd8JaNacvrVhs6NSwgxOgK95qaAmRecwDwDJ9BNJs
W/izmZ1I57mJ3wglSPDxEFQvUAnNdYQc2plb1y0CgYBTmq8Zcucfc5MjxsmLXPSC
QaoOX37axKO3cLHxLJnh+5slwgUUfpj+agH4Mk9jeejqsbw9/9Moo1qEooD7qVOV
xfkYwTMiN1LkLoouorC6+BmEluMSK23qWIs8IrhEGMEqJrx/WHkHuFZHqVbriNr3
zuFgR69OrNKBIXCmtqO1mQKBgQDJa3/1b6K4TDIt48OKrDRFzSgZf6x/jIELycKk
uM+pG/glzb3wVEPWjdx3KQDK2I9g+NU1Pl42pOPn2koZXc69NYvb0sgcDpdTaekI
MIEXVZXf2HQc9qd1Ew5m8jz5+ajUcTDFp3+/jPusj6RwqSbKU5ZC9trs0qgjojvg
xy479QKBgQCFvwKvwuArGcyIfbHe0beUNh3AxdfkP/Tbqk7HOhtMjp6yQlYA5AKF
IPlt9srAvToN8Osft7YKauyzEFkPIRqr05uQR5F9a76/Nf0hYUYM2J/8wj8i6FBv
wSVTm+f/weTa0weNB0bcgz1ebAmR5ybRviHPZ4fQ0rHRTtpncna+mw==
-----END RSA PRIVATE KEY-----
