Certificate:
    Data:
        Version: 3 (0x2)
        Serial Number: 1 (0x1)
        Signature Algorithm: sha256WithRSAEncryption
        Issuer: C=US, ST=California, O=M2Crypto, CN=Heikki Toivonen
        Validity
            Not Before: Oct  7 15:12:02 2018 GMT
            Not After : Oct  4 15:12:02 2028 GMT
        Subject: C=US, ST=California, O=M2Crypto, CN=localhost
        Subject Public Key Info:
            Public Key Algorithm: rsaEncryption
                RSA Public-Key: (2048 bit)
                Modulus:
                    00:f4:f3:38:31:09:92:0d:5d:8b:06:f0:43:e0:62:
                    62:e1:71:eb:30:ba:d7:b9:57:db:8c:10:9b:9e:1e:
                    76:45:ab:14:92:54:d4:47:34:ab:0f:95:f3:83:c5:
                    f1:45:75:58:72:0a:e1:67:77:d0:d3:7e:6a:6f:5d:
                    1a:a4:df:aa:96:c0:0f:8d:0a:95:9e:aa:e5:bc:7a:
                    6f:ab:61:41:75:31:0c:da:a6:d5:0d:b3:42:f0:20:
                    f6:2c:74:69:39:79:90:a0:c9:c2:23:ba:5a:c5:9c:
                    8f:fa:4f:06:bb:04:8e:2d:a1:36:82:c4:23:99:18:
                    1a:b7:56:0f:8a:ef:ff:57:22:51:96:ca:69:8f:a3:
                    ae:91:b7:84:02:07:be:4d:55:f2:1c:f9:11:2a:ff:
                    20:ab:0f:27:fb:79:75:6c:b2:53:e3:04:ea:4f:e5:
                    51:3f:1e:b0:b5:7f:fa:de:0f:f6:e8:e6:85:a3:17:
                    8c:b1:a6:dd:fc:e9:b8:92:d5:1c:73:d7:82:6e:60:
                    6c:10:b3:22:ca:a5:d8:c5:d2:41:93:b3:57:3f:1b:
                    cf:cf:78:4c:15:85:b1:ca:b6:84:13:1b:8f:42:ed:
                    21:bb:90:a2:b7:39:9d:68:bf:4d:da:31:06:53:98:
                    e3:de:8f:f8:3e:7d:25:f2:75:7e:d3:09:e4:eb:4d:
                    59:c9
                Exponent: 65537 (0x10001)
        X509v3 extensions:
            X509v3 Basic Constraints: 
                CA:FALSE
            X509v3 Subject Key Identifier: 
                56:FF:B6:FD:ED:A3:76:04:AA:CB:1F:25:FB:A5:8D:9D:9A:D5:85:D3
    Signature Algorithm: sha256WithRSAEncryption
         53:99:54:2e:26:26:0c:81:b2:c6:5c:61:6f:1c:60:28:ed:f3:
         1b:74:8e:e8:c1:3c:b5:35:e3:db:51:07:38:43:b0:57:0b:e5:
         7e:fa:0a:9e:bd:bd:82:5a:ed:9b:67:0d:2b:61:4d:44:58:64:
         a2:fe:bc:fb:90:80:d2:6b:e4:25:09:ea:ca:a1:17:e6:33:31:
         09:62:b6:db:4c:21:f3:52:02:7d:ca:9a:f9:42:04:50:b4:d8:
         a6:49:ea:bd:c0:13:05:c6:c4:d2:59:d6:30:87:80:c6:a3:92:
         45:49:02:43:9c:4a:aa:c1:84:d0:ea:01:29:40:73:87:cd:8e:
         aa:93:d3:33:7e:01:cf:b5:c1:4b:35:e7:20:1f:6d:7a:c5:d4:
         a9:4a:c1:e2:26:f5:b7:a2:f5:04:31:45:74:30:9a:51:e7:19:
         62:e4:d1:ab:f9:36:29:58:ec:90:f9:8c:3b:28:39:28:d7:8a:
         a0:c3:ae:aa:a9:c2:05:6e:a9:f4:b6:62:1b:01:db:f9:3e:b9:
         a4:d7:05:ac:76:b8:8a:12:57:b3:66:de:b0:d2:78:0d:07:9c:
         15:1b:85:84:76:31:23:64:ce:1e:7f:be:1e:cc:d9:9f:c0:0c:
         9c:20:b9:f0:2e:09:04:ca:d0:61:fc:ce:ba:df:28:c8:20:c8:
         fb:63:1d:52
-----BEGIN CERTIFICATE-----
MIIDPzCCAiegAwIBAgIBATANBgkqhkiG9w0BAQsFADBPMQswCQYDVQQGEwJVUzET
MBEGA1UECAwKQ2FsaWZvcm5pYTERMA8GA1UECgwITTJDcnlwdG8xGDAWBgNVBAMM
D0hlaWtraSBUb2l2b25lbjAeFw0xODEwMDcxNTEyMDJaFw0yODEwMDQxNTEyMDJa
MEkxCzAJBgNVBAYTAlVTMRMwEQYDVQQIDApDYWxpZm9ybmlhMREwDwYDVQQKDAhN
MkNyeXB0bzESMBAGA1UEAwwJbG9jYWxob3N0MIIBIjANBgkqhkiG9w0BAQEFAAOC
AQ8AMIIBCgKCAQEA9PM4MQmSDV2LBvBD4GJi4XHrMLrXuVfbjBCbnh52RasUklTU
RzSrD5Xzg8XxRXVYcgrhZ3fQ035qb10apN+qlsAPjQqVnqrlvHpvq2FBdTEM2qbV
DbNC8CD2LHRpOXmQoMnCI7paxZyP+k8GuwSOLaE2gsQjmRgat1YPiu//VyJRlspp
j6OukbeEAge+TVXyHPkRKv8gqw8n+3l1bLJT4wTqT+VRPx6wtX/63g/26OaFoxeM
sabd/Om4ktUcc9eCbmBsELMiyqXYxdJBk7NXPxvPz3hMFYWxyraEExuPQu0hu5Ci
tzmdaL9N2jEGU5jj3o/4Pn0l8nV+0wnk601ZyQIDAQABoywwKjAJBgNVHRMEAjAA
MB0GA1UdDgQWBBRW/7b97aN2BKrLHyX7pY2dmtWF0zANBgkqhkiG9w0BAQsFAAOC
AQEAU5lULiYmDIGyxlxhbxxgKO3zG3SO6ME8tTXj21EHOEOwVwvlfvoKnr29glrt
m2cNK2FNRFhkov68+5CA0mvkJQnqyqEX5jMxCWK220wh81ICfcqa+UIEULTYpknq
vcATBcbE0lnWMIeAxqOSRUkCQ5xKqsGE0OoBKUBzh82OqpPTM34Bz7XBSzXnIB9t
esXUqUrB4ib1t6L1BDFFdDCaUecZYuTRq/k2KVjskPmMOyg5KNeKoMOuqqnCBW6p
9LZiGwHb+T65pNcFrHa4ihJXs2besNJ4DQecFRuFhHYxI2TOHn++HszZn8AMnCC5
8C4JBMrQYfzOut8oyCDI+2MdUg==
-----END CERTIFICATE-----
-----BEGIN RSA PRIVATE KEY-----
MIIEpAIBAAKCAQEA9PM4MQmSDV2LBvBD4GJi4XHrMLrXuVfbjBCbnh52RasUklTU
RzSrD5Xzg8XxRXVYcgrhZ3fQ035qb10apN+qlsAPjQqVnqrlvHpvq2FBdTEM2qbV
DbNC8CD2LHRpOXmQoMnCI7paxZyP+k8GuwSOLaE2gsQjmRgat1YPiu//VyJRlspp
j6OukbeEAge+TVXyHPkRKv8gqw8n+3l1bLJT4wTqT+VRPx6wtX/63g/26OaFoxeM
sabd/Om4ktUcc9eCbmBsELMiyqXYxdJBk7NXPxvPz3hMFYWxyraEExuPQu0hu5Ci
tzmdaL9N2jEGU5jj3o/4Pn0l8nV+0wnk601ZyQIDAQABAoIBAQCgFpWS9v5NXeWP
E1hJPgQB88IShwqWR6VlVTVfkekaf0Vina5fGzzxYr9UT/nvu1Gitxm51cTVdLl7
Lw5K0yNagwum0lQW7vpWxG5XQ6jUPsp33LFB0vbcma5KP4rF1X2AmFwZnaHVpQ00
OpHbiI6jo8lMjYP2epp7V/OwikoHV0873HTmuq2Y+jUvRM3o01moDtuF5mKofNEd
ft9lArRG8yjLgC5G1C9cmiATGoMGyHBRkEv+UrUWLHVxrpXviUd+/iJmhrwXcpvj
rTrZWbUkSA3i4JMml/qYqNQYeVUFVgV/slD331iIwlWP8RipXF5YqN+YGjGeqL0+
yQ4KWtABAoGBAP7XvGBUWNBSBrqioTzqYMTbwz/YjXJkvlO09wwc/UkraYlSihi0
2J1dKBePIfOk6gFbuiJNYMJvAt1hBCsN0Z6o/bH7CiOh/55nkTaL0R4zB38uuDDx
4qf6+9HT1eC9yW3UJVPwBBwI4WZmmq4peQoipBtKwpY2Q+yoUU3gp4KhAoGBAPYP
+6uv3gQYoIpkUD2ZdX8kFoaC6rJMP3Z/N75NfsOz1Tx3nNwexYM6EVVQrvTRWpLZ
rJyCgCJi9HY4lPASKSKM1cLCT/M3SdR8OiqlEjziZtSH/di6wq8/Hfqhf75nC7sK
wV7Ic0eQ3Bjg2hggPpjeBJTv8NIlCYbWbxHnsK4pAoGAY0I39vUjWpB4Wn05e/Z2
FnbaR6XbAfFHSGc1yhwIc1VbV8c0Tocxz6kXEoYHXVSgaEMH7pBg3ZpLbVp6OyK4
wKlllssGmfZhD5ubLbmri62of9r8luO/ulnBd2qg5VZGfGai21yi3SCAWlggazFw
GYiAjrjBrawZLLYqZMDZvcECgYBoi6/taWKWMPR8+FQTaBFA/M9JRXR8XuMT8Md5
Zqm2csDl2Rhfef+HWvOkYQyE3jJydGPfd58DfTHKzQ2S1tR9ZoMoJbEccGBBFKsO
FWajUbpJEKKtI+S12sZdB6Mj/dpBFTfFkrtQK98n/tkLKSAPiT0/HpceYjgi/xbf
76XkyQKBgQCkAuuTYi/9vlqYBcUH+23f0XmzQ6NNCqi0JxrnUmPv0Mc/ci7QfBZ6
BkjPxfllpAsDihfTFpfp6p1PCMpASq1J+w1yR+lnKgw9BlbBLT4SqSVVDiju0cfw
njm6zQu7IR6Ts/vi+YbVqn3yeP8U5W9as7QL5y6KeYfAhwuPqWhvog==
-----END RSA PRIVATE KEY-----
