Certificate:
    Data:
        Version: 3 (0x2)
        Serial Number: 1 (0x1)
        Signature Algorithm: sha256WithRSAEncryption
        Issuer: C=US, ST=California, O=M2Crypto, CN=Heikki Toivonen
        Validity
            Not Before: Apr 22 14:50:27 2025 GMT
            Not After : Apr 20 14:50:27 2035 GMT
        Subject: C=US, ST=California, O=M2Crypto, CN=localhost
        Subject Public Key Info:
            Public Key Algorithm: rsaEncryption
                RSA Public-Key: (2048 bit)
                Modulus:
                    00:c8:99:5f:67:6b:be:f2:45:2d:85:0b:ca:d9:ad:
                    66:d9:47:97:7c:d4:cb:e6:91:55:33:79:45:86:1c:
                    4f:08:12:7f:4b:ec:83:bc:da:b5:af:0b:36:94:e9:
                    7a:90:c5:0f:39:63:c6:a4:51:b9:92:00:8e:d8:d6:
                    32:6f:7f:47:9d:f6:9a:9a:0f:18:66:14:13:a0:99:
                    f7:29:8e:31:ee:9f:17:07:18:bd:b3:3c:74:bc:a9:
                    6f:0d:b4:25:1a:3d:5f:b5:d5:1d:85:5b:5b:ed:f5:
                    30:1e:0a:31:21:33:59:0d:d5:d0:33:71:33:7e:21:
                    5e:f0:bd:d2:79:e7:a7:e3:e0:48:dd:c2:11:65:5a:
                    27:39:ad:39:3a:23:02:01:9f:d6:e6:5a:f0:b0:8f:
                    8d:34:c8:44:f1:2b:38:59:d7:dd:3b:ee:e2:40:a5:
                    15:b9:96:05:59:43:9e:03:92:06:2f:01:64:11:3a:
                    60:31:ec:c3:55:fe:9a:5d:54:6a:6a:a9:b7:f5:1b:
                    0e:c4:73:b3:50:c3:14:04:5a:ba:70:d1:dc:ec:37:
                    1b:10:e3:59:51:54:06:fa:8e:c3:03:09:6f:c5:97:
                    a8:80:a5:64:d9:3a:a5:62:e2:ca:7a:aa:4c:99:dc:
                    89:29:59:88:de:d3:96:ee:23:c7:30:2e:bd:b9:44:
                    bf:97
                Exponent: 65537 (0x10001)
        X509v3 extensions:
            X509v3 Basic Constraints: 
                CA:FALSE
            X509v3 Subject Key Identifier: 
                A5:1F:B6:1F:99:5E:36:5D:FB:55:D5:A1:99:E8:76:32:5D:60:08:BF
    Signature Algorithm: sha256WithRSAEncryption
    Signature Value:
        77:d9:f1:59:61:76:7c:dc:f6:f1:46:d4:6a:f8:30:e5:94:dd:
        92:63:20:5a:e5:b2:a0:a5:c7:5c:22:c8:ca:9f:c7:d7:bc:42:
        b3:8c:a0:3e:60:76:bd:a4:98:fb:25:8f:a6:87:6d:dc:43:37:
        7e:15:60:ad:f2:17:29:34:2b:ea:fc:f6:69:ca:20:e3:c7:6e:
        66:42:2e:d3:21:f3:53:40:7a:2e:f2:26:74:ac:6c:1f:6f:7d:
        b8:d1:d3:24:0e:5e:9e:d9:4c:da:d8:f1:db:4d:9e:5b:48:66:
        70:92:93:db:80:c1:84:d4:73:f2:57:b3:f0:d5:8e:43:2b:14:
        0d:6d:77:51:36:48:ac:35:b5:d3:57:a4:29:af:35:8a:a6:c2:
        a7:77:c6:62:aa:64:6a:3e:61:a7:ed:94:01:64:fb:d3:45:0c:
        c5:e8:1a:ad:83:d4:b8:fd:6c:d8:7d:5f:f6:02:c6:4d:e8:37:
        83:1c:4e:bb:b6:97:e0:54:b2:91:5f:e3:cd:c9:a5:c0:f2:35:
        9d:24:21:ae:4f:48:0c:f8:fc:f7:19:2a:25:8d:a7:41:de:a3:
        52:0f:c0:52:55:4d:60:d2:9f:55:4f:f2:ea:0d:36:94:00:8f:
        99:01:d8:33:c0:d1:6c:57:b6:a7:3a:4b:cd:f8:62:d8:21:bd:
        5c:ab:2a:0b
-----BEGIN CERTIFICATE-----
MIIDPzCCAiegAwIBAgIBATANBgkqhkiG9w0BAQsFADBPMQswCQYDVQQGEwJVUzET
MBEGA1UECAwKQ2FsaWZvcm5pYTERMA8GA1UECgwITTJDcnlwdG8xGDAWBgNVBAMM
D0hlaWtraSBUb2l2b25lbjAeFw0yNTA0MjIxNDUwMjdaFw0zNTA0MjAxNDUwMjda
MEkxCzAJBgNVBAYTAlVTMRMwEQYDVQQIDApDYWxpZm9ybmlhMREwDwYDVQQKDAhN
MkNyeXB0bzESMBAGA1UEAwwJbG9jYWxob3N0MIIBIjANBgkqhkiG9w0BAQEFAAOC
AQ8AMIIBCgKCAQEAyJlfZ2u+8kUthQvK2a1m2UeXfNTL5pFVM3lFhhxPCBJ/S+yD
vNq1rws2lOl6kMUPOWPGpFG5kgCO2NYyb39Hnfaamg8YZhQToJn3KY4x7p8XBxi9
szx0vKlvDbQlGj1ftdUdhVtb7fUwHgoxITNZDdXQM3EzfiFe8L3Seeen4+BI3cIR
ZVonOa05OiMCAZ/W5lrwsI+NNMhE8Ss4WdfdO+7iQKUVuZYFWUOeA5IGLwFkETpg
MezDVf6aXVRqaqm39RsOxHOzUMMUBFq6cNHc7DcbEONZUVQG+o7DAwlvxZeogKVk
2TqlYuLKeqpMmdyJKVmI3tOW7iPHMC69uUS/lwIDAQABoywwKjAJBgNVHRMEAjAA
MB0GA1UdDgQWBBSlH7YfmV42XftV1aGZ6HYyXWAIvzANBgkqhkiG9w0BAQsFAAOC
AQEAd9nxWWF2fNz28UbUavgw5ZTdkmMgWuWyoKXHXCLIyp/H17xCs4ygPmB2vaSY
+yWPpodt3EM3fhVgrfIXKTQr6vz2acog48duZkIu0yHzU0B6LvImdKxsH299uNHT
JA5entlM2tjx202eW0hmcJKT24DBhNRz8lez8NWOQysUDW13UTZIrDW101ekKa81
iqbCp3fGYqpkaj5hp+2UAWT700UMxegarYPUuP1s2H1f9gLGTeg3gxxOu7aX4FSy
kV/jzcmlwPI1nSQhrk9IDPj89xkqJY2nQd6jUg/AUlVNYNKfVU/y6g02lACPmQHY
M8DRbFe2pzpLzfhi2CG9XKsqCw==
-----END CERTIFICATE-----
-----BEGIN RSA PRIVATE KEY-----
MIIEowIBAAKCAQEAyJlfZ2u+8kUthQvK2a1m2UeXfNTL5pFVM3lFhhxPCBJ/S+yD
vNq1rws2lOl6kMUPOWPGpFG5kgCO2NYyb39Hnfaamg8YZhQToJn3KY4x7p8XBxi9
szx0vKlvDbQlGj1ftdUdhVtb7fUwHgoxITNZDdXQM3EzfiFe8L3Seeen4+BI3cIR
ZVonOa05OiMCAZ/W5lrwsI+NNMhE8Ss4WdfdO+7iQKUVuZYFWUOeA5IGLwFkETpg
MezDVf6aXVRqaqm39RsOxHOzUMMUBFq6cNHc7DcbEONZUVQG+o7DAwlvxZeogKVk
2TqlYuLKeqpMmdyJKVmI3tOW7iPHMC69uUS/lwIDAQABAoIBAEOjg4nJyN7D+K9N
5J41W+KTwz6yOfaKtqHemFS6IuPj6Mxe+aSqUmytaUAY4d0CtTlyrT4m2F2kloYC
44q47hsTVdnwkReKWXvjrnVynt+JASjBbOWM0wfyUaHbRk9stmMHcybOQVchP5JB
eYNqXvLNT6Co4OX8tpiSSPAV7oRlOGz6eA4Kk2NKYbGGVdw/bj2jbbDE2k8sm419
FmKXxzzsiYo/dXDx0MHllMBuIqU++lKY//9WJjaHxi2VqofBNha9Cn9Oq9aJWS1t
taNdV4d0edMKEVEG0ZA5YPAn4TBL9RywC1DQ3UIr2du6LxN0ABN7K7qzl2O/wc/T
CHTGqbECgYEA+PQhGeM3EqngiBHwEkMFH08U1GPPrwNd7w+lXaVakfm/tkU03IyY
yhDR/FJls0XDHu+8piGLcjcBbjQIYvMv8ftP72neWJzxqpTbx7LQxAV8m8Gy+ayf
QqfySfuFFo/DMOsYNWtEiQjHnGpdQ9XBDpJvZeYvKPd+3nZLatVSmdMCgYEAzkbg
Lzmh3ts4EkL1nSlgsezXvR38stexP7rShhILydlAiydJZRPKE6SthG3JMTTlZZK0
ifu8AfFkOOl3fmz7nfxaKCGMuNOACzgiNiFASxmzjgcQQawqRp2xVcVP7Gd4DP82
2wlDuk9L29cGfzZ7l2scGWdaqCBn0O+Vy5sWhK0CgYB0l7ks65nuVrr+XxBFLTgn
6pyBv+ETQQtsG7LBweBB/2qGzbCtHfesouYFOv3AUQrJ4VNDpvAs5I/58cp/tQ8e
UCmmobltXMtdrWulAhz9wOgT9kqA3hSUXh1+AprY7ylmLqRe2Eb3urHpknLtgx1w
WqprWbt6fzberx4xAYk22wKBgES1qxtP8TFQiD7c+v9ctw7NO5eNE41m922pB1MN
U8vqh+tSLMp0aw1b/0hrYWb4najV0zlbFub2x1GFwv3jw3R+iHFxq3QtTyttiUfK
j6X0a7DVfX7CoFphUJ6nWNYAKSb7JASV829t1nDmEQ3y0fw/+14i5Tm3gZ1BEP5/
LGMJAoGBAPS9wfFT31r1sd0oAl9MWRyRNNr71G5nwt36Oqj2RLMaswLaAbwGLWkp
+9LCRnQPC00PsMB9QbWdb3WmHrnpiWwd0Re/e5BSSOtpbW/A+WT9SPHU5z8+dVyQ
1mnG1XXjIOdaIDbANdGuE6qUYUQBQFUiBawJfhMxsfBwPHdcRi0f
-----END RSA PRIVATE KEY-----
