Certificate:
    Data:
        Version: 3 (0x2)
        Serial Number: 3 (0x3)
        Signature Algorithm: sha256WithRSAEncryption
        Issuer: C=US, O=M2Crypto ca, CN=localhost
        Validity
            Not Before: Apr 29 06:58:18 2013 GMT
            Not After : Apr 27 06:58:18 2023 GMT
        Subject: C=US, O=M2Crypto signer, CN=localhost/emailAddress=signer@example.com
        Subject Public Key Info:
            Public Key Algorithm: rsaEncryption
            RSA Public Key: (2048 bit)
                Modulus (2048 bit):
                    00:a8:9f:03:b0:f2:96:a6:b1:86:98:68:40:7e:08:
                    49:47:1d:4d:c1:3f:e0:10:2e:9d:9c:0f:00:bc:dd:
                    8f:d3:b7:74:1f:ad:f5:e5:44:5d:31:77:8b:88:b0:
                    5e:68:e6:4f:63:ec:cc:c3:a6:00:76:31:20:c5:63:
                    b3:6b:04:83:e8:bf:c0:b2:c1:69:28:a9:d9:1f:14:
                    52:2b:b4:3d:df:75:4e:13:c1:01:9c:e0:89:b1:55:
                    44:5d:6a:72:2e:8b:06:0f:5b:73:c2:6b:eb:37:81:
                    66:39:80:ed:01:01:35:03:38:c6:60:16:c2:22:17:
                    07:7c:31:32:90:a5:53:6b:c8:9e:7d:94:63:7f:2f:
                    50:9f:04:d8:6a:d4:0e:96:a8:47:ff:97:c0:26:e7:
                    82:20:c8:7b:e6:d1:57:0f:35:6b:39:54:4e:bf:2e:
                    22:c9:0a:bd:7d:bb:cf:04:a7:f0:68:18:40:ad:91:
                    9e:a6:dc:b2:fa:11:c7:c9:5e:77:df:77:72:1e:24:
                    4a:d0:d5:86:a8:ff:99:8a:84:a2:b6:b6:c8:89:c6:
                    49:8c:b6:c9:36:df:27:55:7b:94:48:a6:fb:46:f2:
                    e9:b8:c5:f1:bc:8f:ce:b6:d8:22:26:3a:13:44:e1:
                    bf:27:bf:ee:19:1d:c1:42:3d:33:1c:f1:42:ff:6b:
                    4b:09
                Exponent: 65537 (0x10001)
    Signature Algorithm: sha256WithRSAEncryption
        ab:ad:64:a2:58:6e:a9:80:1b:a1:27:d3:46:c3:12:be:7c:f6:
        9a:b5:b6:0d:f7:dd:64:ff:01:82:5f:a3:6e:87:c4:d9:ec:db:
        ca:6d:a3:d2:ee:f3:a7:3e:8b:6c:cb:4e:29:02:83:e8:2f:4a:
        7a:7f:85:cf:8c:37:0b:45:f6:a4:6a:d8:44:94:c9:2d:16:6a:
        e2:f2:a1:f4:76:a2:a1:b7:bc:35:23:53:9c:64:ab:d1:46:66:
        5d:1d:ea:df:1a:ee:cc:c1:1d:66:cb:43:2e:57:47:67:dc:64:
        dd:8c:cd:ad:b7:c3:93:8d:63:5e:61:bf:30:f1:ab:3b:8f:a9:
        76:e0:52:dd:a5:e0:63:ae:ed:90:1b:c3:c4:d1:1f:4e:64:7b:
        b0:b6:fb:a7:35:7b:12:1e:9e:c2:c6:f7:05:a0:62:16:ee:a8:
        0a:d5:25:03:00:06:07:16:9b:1b:e1:27:b9:77:af:bb:1b:3b:
        bb:0f:ae:fa:d5:1e:19:25:a1:7a:2b:7a:7c:b9:ea:ad:e7:81:
        bc:b9:21:29:da:00:8b:98:4d:23:03:a4:7c:07:54:82:95:d3:
        a8:47:f1:1f:b7:ad:bb:7c:29:11:1d:6b:fb:da:0d:38:61:c0:
        01:cc:16:6a:fd:59:bb:dd:30:e4:7a:75:1c:1d:7e:a7:7a:42:
        f7:55:1a:34
-----BEGIN CERTIFICATE-----
MIIDDjCCAfagAwIBAgIBAzANBgkqhkiG9w0BAQsFADA3MQswCQYDVQQGEwJVUzEU
MBIGA1UEChMLTTJDcnlwdG8gY2ExEjAQBgNVBAMTCWxvY2FsaG9zdDAeFw0xMzA0
MjkwNjU4MThaFw0yMzA0MjcwNjU4MThaMF4xCzAJBgNVBAYTAlVTMRgwFgYDVQQK
Ew9NMkNyeXB0byBzaWduZXIxEjAQBgNVBAMTCWxvY2FsaG9zdDEhMB8GCSqGSIb3
DQEJARYSc2lnbmVyQGV4YW1wbGUuY29tMIIBIjANBgkqhkiG9w0BAQEFAAOCAQ8A
MIIBCgKCAQEAqJ8DsPKWprGGmGhAfghJRx1NwT/gEC6dnA8AvN2P07d0H6315URd
MXeLiLBeaOZPY+zMw6YAdjEgxWOzawSD6L/AssFpKKnZHxRSK7Q933VOE8EBnOCJ
sVVEXWpyLosGD1tzwmvrN4FmOYDtAQE1AzjGYBbCIhcHfDEykKVTa8iefZRjfy9Q
nwTYatQOlqhH/5fAJueCIMh75tFXDzVrOVROvy4iyQq9fbvPBKfwaBhArZGeptyy
+hHHyV5333dyHiRK0NWGqP+ZioSitrbIicZJjLbJNt8nVXuUSKb7RvLpuMXxvI/O
ttgiJjoTROG/J7/uGR3BQj0zHPFC/2tLCQIDAQABMA0GCSqGSIb3DQEBCwUAA4IB
AQCrrWSiWG6pgBuhJ9NGwxK+fPaatbYN991k/wGCX6Nuh8TZ7NvKbaPS7vOnPots
y04pAoPoL0p6f4XPjDcLRfakathElMktFmri8qH0dqKht7w1I1OcZKvRRmZdHerf
Gu7MwR1my0MuV0dn3GTdjM2tt8OTjWNeYb8w8as7j6l24FLdpeBjru2QG8PE0R9O
ZHuwtvunNXsSHp7CxvcFoGIW7qgK1SUDAAYHFpsb4Se5d6+7Gzu7D6761R4ZJaF6
K3p8ueqt54G8uSEp2gCLmE0jA6R8B1SCldOoR/Eft627fCkRHWv72g04YcABzBZq
/Vm73TDkenUcHX6nekL3VRo0
-----END CERTIFICATE-----
