Certificate:
    Data:
        Version: 3 (0x2)
        Serial Number: 3 (0x3)
        Signature Algorithm: sha256WithRSAEncryption
        Issuer: C=US, ST=California, O=M2Crypto, CN=Heikki Toivonen
        Validity
            Not Before: Apr 22 14:50:27 2025 GMT
            Not After : Apr 20 14:50:27 2035 GMT
        Subject: C=US, ST=California, O=M2Crypto, CN=Signer/emailAddress=signer@example.com
        Subject Public Key Info:
            Public Key Algorithm: rsaEncryption
                RSA Public-Key: (2048 bit)
                Modulus:
                    00:d0:90:54:6d:02:19:6c:bd:2a:cd:08:ac:b1:1e:
                    19:f5:64:2f:11:62:8d:ee:51:bc:b1:69:0d:0e:e4:
                    9c:aa:fc:5b:60:ca:53:0c:52:1c:2f:92:f4:c2:56:
                    98:7a:8c:ac:50:a8:d9:bf:a0:d8:99:8a:ca:92:b0:
                    98:84:77:4c:ae:30:5f:5c:2c:3c:9e:68:0c:a7:bc:
                    53:1e:d1:c0:d8:22:d8:fe:bd:18:cf:60:21:38:97:
                    66:17:9c:11:6b:31:ea:48:03:82:b3:de:a6:c4:48:
                    dd:95:bd:6d:d6:d9:42:6c:1c:22:5e:4f:83:02:ce:
                    32:8d:0b:8b:a5:d9:6d:e6:b7:0a:9e:56:0f:c0:0b:
                    a1:05:a4:dd:3b:f3:20:ce:70:6b:c6:b3:a3:f4:fb:
                    c8:27:af:05:c8:94:a0:d5:17:03:30:72:64:3c:d1:
                    9b:b2:3b:4f:94:ff:ee:42:c2:bb:05:e3:6e:de:bf:
                    39:02:dc:17:63:40:4f:6c:7c:bb:b6:7b:a0:b3:4d:
                    c8:c4:e0:27:43:3d:a7:5c:2f:5c:a7:dc:09:d8:46:
                    ad:d0:2e:0c:97:bc:6f:03:69:df:1b:37:6d:67:6f:
                    fd:4d:68:fb:53:0f:df:01:db:e8:05:b5:be:9b:fb:
                    dc:e2:8a:68:0a:96:2a:3e:75:0f:fc:03:c6:a8:50:
                    77:e3
                Exponent: 65537 (0x10001)
        X509v3 extensions:
            X509v3 Basic Constraints: 
                CA:FALSE
            X509v3 Subject Key Identifier: 
                72:2E:DF:45:BD:A4:04:AD:32:46:BA:C0:72:A1:4A:CB:2D:13:77:39
    Signature Algorithm: sha256WithRSAEncryption
    Signature Value:
        28:12:22:43:61:b3:88:f2:6b:4c:6c:cd:f7:17:84:06:ab:ca:
        d8:f8:c3:39:fd:a0:46:b9:d4:3c:46:c4:f5:89:7b:3c:47:f6:
        8b:48:b0:7a:69:63:da:61:f3:ad:82:6f:0f:82:c3:9f:5f:69:
        73:55:3e:6d:b6:d0:c4:3d:76:a4:3e:c8:f9:82:9a:60:4b:5f:
        3a:a3:ea:06:21:f3:02:5c:9d:17:7a:42:34:75:d5:0e:52:39:
        83:37:02:3f:df:48:99:68:4e:47:64:8d:dd:34:7c:12:c5:c2:
        e3:d3:c0:b9:1f:74:4e:08:c8:90:6b:95:b6:ed:8a:54:be:fc:
        9d:5e:af:4e:d7:f7:4a:04:c0:e6:23:73:32:a3:7f:5a:a0:ce:
        f3:d8:d1:b6:96:ab:73:1c:b2:6a:ff:7b:45:d7:f6:3e:12:d1:
        89:31:b0:46:5e:ea:71:a9:59:6b:97:0a:59:73:87:f0:3d:e4:
        47:80:e7:6f:99:06:99:e0:59:c7:dc:6a:00:51:d1:90:10:89:
        6a:c8:39:07:1f:48:26:c2:85:a0:17:28:20:be:61:6a:d8:ad:
        4f:ce:73:6b:d5:fd:4b:85:1f:53:e8:53:a5:9b:77:e3:94:fb:
        a9:ed:0f:d0:b3:9a:88:18:0d:a9:4d:13:d8:f6:93:82:17:86:
        21:b4:c6:54
-----BEGIN CERTIFICATE-----
MIIDXzCCAkegAwIBAgIBAzANBgkqhkiG9w0BAQsFADBPMQswCQYDVQQGEwJVUzET
MBEGA1UECAwKQ2FsaWZvcm5pYTERMA8GA1UECgwITTJDcnlwdG8xGDAWBgNVBAMM
D0hlaWtraSBUb2l2b25lbjAeFw0yNTA0MjIxNDUwMjdaFw0zNTA0MjAxNDUwMjda
MGkxCzAJBgNVBAYTAlVTMRMwEQYDVQQIDApDYWxpZm9ybmlhMREwDwYDVQQKDAhN
MkNyeXB0bzEPMA0GA1UEAwwGU2lnbmVyMSEwHwYJKoZIhvcNAQkBFhJzaWduZXJA
ZXhhbXBsZS5jb20wggEiMA0GCSqGSIb3DQEBAQUAA4IBDwAwggEKAoIBAQDQkFRt
AhlsvSrNCKyxHhn1ZC8RYo3uUbyxaQ0O5Jyq/FtgylMMUhwvkvTCVph6jKxQqNm/
oNiZisqSsJiEd0yuMF9cLDyeaAynvFMe0cDYItj+vRjPYCE4l2YXnBFrMepIA4Kz
3qbESN2VvW3W2UJsHCJeT4MCzjKNC4ul2W3mtwqeVg/AC6EFpN078yDOcGvGs6P0
+8gnrwXIlKDVFwMwcmQ80ZuyO0+U/+5CwrsF427evzkC3BdjQE9sfLu2e6CzTcjE
4CdDPadcL1yn3AnYRq3QLgyXvG8Dad8bN21nb/1NaPtTD98B2+gFtb6b+9ziimgK
lio+dQ/8A8aoUHfjAgMBAAGjLDAqMAkGA1UdEwQCMAAwHQYDVR0OBBYEFHIu30W9
pAStMka6wHKhSsstE3c5MA0GCSqGSIb3DQEBCwUAA4IBAQAoEiJDYbOI8mtMbM33
F4QGq8rY+MM5/aBGudQ8RsT1iXs8R/aLSLB6aWPaYfOtgm8PgsOfX2lzVT5tttDE
PXakPsj5gppgS186o+oGIfMCXJ0XekI0ddUOUjmDNwI/30iZaE5HZI3dNHwSxcLj
08C5H3ROCMiQa5W27YpUvvydXq9O1/dKBMDmI3Myo39aoM7z2NG2lqtzHLJq/3tF
1/Y+EtGJMbBGXupxqVlrlwpZc4fwPeRHgOdvmQaZ4FnH3GoAUdGQEIlqyDkHH0gm
woWgFyggvmFq2K1PznNr1f1LhR9T6FOlm3fjlPup7Q/Qs5qIGA2pTRPY9pOCF4Yh
tMZU
-----END CERTIFICATE-----
