Certificate:
    Data:
        Version: 3 (0x2)
        Serial Number: 3 (0x3)
    Signature Algorithm: sha1WithRSAEncryption
        Issuer: C=US, ST=California, O=M2Crypto, CN=Heikki Toivonen
        Validity
            Not Before: Nov 26 21:33:12 2015 GMT
            Not After : Nov 23 21:33:12 2025 GMT
        Subject: C=US, ST=California, O=M2Crypto, CN=Signer/emailAddress=signer@example.com
        Subject Public Key Info:
            Public Key Algorithm: rsaEncryption
                Public-Key: (1024 bit)
                Modulus:
                    00:cc:30:9e:34:85:38:82:c4:8d:f7:83:2e:8b:af:
                    3c:a4:84:67:18:90:81:1c:f8:58:ab:d8:93:87:a1:
                    a4:51:5b:6c:15:18:10:35:0d:29:7c:06:da:72:a7:
                    a7:c4:1e:ae:55:82:ce:a9:69:c1:29:cd:6e:37:21:
                    a6:92:ba:01:c2:da:09:7b:a5:9e:bc:81:60:6d:59:
                    af:40:d3:91:11:d6:ea:31:1a:b8:35:a4:5d:0e:f2:
                    3f:09:d1:ed:7d:34:98:bc:5f:94:f6:fd:ef:1e:56:
                    33:af:12:d1:1a:f7:ea:ea:a5:06:cf:31:7a:4f:2f:
                    1e:bd:61:26:cc:99:41:f7:93
                Exponent: 65537 (0x10001)
        X509v3 extensions:
            X509v3 Basic Constraints: 
                CA:FALSE
            X509v3 Subject Key Identifier: 
                BD:A0:68:1F:3A:D8:6E:2B:DA:DB:54:09:D2:E6:39:3B:9B:04:6C:C4
    Signature Algorithm: sha1WithRSAEncryption
         9b:4b:80:33:97:ef:d6:b7:09:a5:f5:7f:43:20:71:d5:9b:83:
         5d:52:3d:83:8e:df:51:d9:e5:bb:e3:d5:8a:aa:9d:5c:ff:2d:
         e5:b7:4d:67:06:ee:f8:fd:62:99:1e:e6:ea:26:7a:24:09:87:
         5b:3c:5a:4f:5f:e3:5a:a7:4d:98:10:82:b2:7e:38:13:07:f1:
         62:33:0a:67:dd:61:f2:bd:9d:fb:83:0f:45:e0:b1:22:71:9f:
         3c:c8:f6:98:a0:95:a9:cc:fa:57:ea:b7:26:86:c4:28:c0:97:
         e4:a6:e2:86:85:39:aa:8f:41:ba:45:da:92:71:06:aa:38:b0:
         2b:fd
-----BEGIN CERTIFICATE-----
MIICWjCCAcOgAwIBAgIBAzANBgkqhkiG9w0BAQUFADBPMQswCQYDVQQGEwJVUzET
MBEGA1UECBMKQ2FsaWZvcm5pYTERMA8GA1UEChMITTJDcnlwdG8xGDAWBgNVBAMT
D0hlaWtraSBUb2l2b25lbjAeFw0xNTExMjYyMTMzMTJaFw0yNTExMjMyMTMzMTJa
MGkxCzAJBgNVBAYTAlVTMRMwEQYDVQQIEwpDYWxpZm9ybmlhMREwDwYDVQQKEwhN
MkNyeXB0bzEPMA0GA1UEAxMGU2lnbmVyMSEwHwYJKoZIhvcNAQkBFhJzaWduZXJA
ZXhhbXBsZS5jb20wgZ8wDQYJKoZIhvcNAQEBBQADgY0AMIGJAoGBAMwwnjSFOILE
jfeDLouvPKSEZxiQgRz4WKvYk4ehpFFbbBUYEDUNKXwG2nKnp8QerlWCzqlpwSnN
bjchppK6AcLaCXulnryBYG1Zr0DTkRHW6jEauDWkXQ7yPwnR7X00mLxflPb97x5W
M68S0Rr36uqlBs8xek8vHr1hJsyZQfeTAgMBAAGjLDAqMAkGA1UdEwQCMAAwHQYD
VR0OBBYEFL2gaB862G4r2ttUCdLmOTubBGzEMA0GCSqGSIb3DQEBBQUAA4GBAJtL
gDOX79a3CaX1f0MgcdWbg11SPYOO31HZ5bvj1YqqnVz/LeW3TWcG7vj9Ypke5uom
eiQJh1s8Wk9f41qnTZgQgrJ+OBMH8WIzCmfdYfK9nfuDD0XgsSJxnzzI9piglanM
+lfqtyaGxCjAl+Sm4oaFOaqPQbpF2pJxBqo4sCv9
-----END CERTIFICATE-----
