Certificate:
    Data:
        Version: 3 (0x2)
        Serial Number:
            b4:7e:b2:de:87:00:03:0e
        Signature Algorithm: sha1WithRSAEncryption
        Issuer: C=US, ST=California, O=M2Crypto, CN=Heikki Toivonen
        Validity
            Not Before: Nov 21 15:37:55 2012 GMT
            Not After : Jan  8 15:37:55 2023 GMT
        Subject: C=US, ST=California, O=M2Crypto, CN=Signer/emailAddress=signer@example.com
        Subject Public Key Info:
            Public Key Algorithm: rsaEncryption
                Public-Key: (1024 bit)
                Modulus:
                    00:a1:f3:c0:4b:84:03:54:c4:db:dd:95:75:4b:d2:
                    e3:4b:63:5e:fb:e9:68:32:3a:79:3a:5b:3c:f1:ae:
                    3c:65:11:a1:a2:86:d9:45:20:c1:a8:3c:e9:64:c6:
                    5c:9a:58:ee:ae:d3:4e:af:07:95:80:5f:4c:fe:64:
                    bd:65:ae:2c:91:fc:fa:bf:dc:aa:5f:da:36:4c:0a:
                    77:61:e6:a4:f6:a3:54:92:bf:39:12:84:44:d9:ab:
                    12:da:78:43:20:b6:50:6c:9d:87:3a:27:86:95:14:
                    a7:9c:f2:d8:36:29:fb:1e:24:64:61:13:48:b5:de:
                    17:61:49:6c:2a:61:da:03:b1
                Exponent: 65537 (0x10001)
        X509v3 extensions:
            X509v3 Basic Constraints: 
                CA:FALSE
            Netscape Comment: 
                OpenSSL Generated Certificate
            X509v3 Subject Key Identifier: 
                07:7D:13:C0:AF:F5:E4:63:CD:7C:64:68:FF:D2:67:FC:27:46:DC:04
            X509v3 Authority Key Identifier: 
                keyid:80:D9:6A:1E:15:FE:8B:61:51:62:60:4D:B3:CC:95:44:78:2D:89:E6

    Signature Algorithm: sha1WithRSAEncryption
        00:64:bc:be:4b:42:72:54:ca:7e:02:28:87:90:07:c8:cb:ad:
        ac:18:fa:89:bb:1e:a8:20:c1:1a:39:d2:e3:ba:b6:d9:1c:b6:
        bf:bb:c7:dc:46:3b:99:ac:81:13:99:f7:88:9f:b2:ae:19:ff:
        d7:37:c2:83:aa:ca:c8:d2:03:1f:ce:00:b8:86:2a:b0:2d:80:
        e8:83:c0:83:34:8a:dd:9f:75:c5:df:61:ff:cc:c1:8b:ab:e0:
        e1:13:02:ff:63:4b:1d:58:0b:5d:3a:a4:e9:a3:b5:3a:19:2f:
        dc:a4:c2:4a:b4:46:5e:0c:fa:59:4e:c5:31:5f:a2:18:aa:c8:
        a4:92
-----BEGIN CERTIFICATE-----
MIICsTCCAhqgAwIBAgIJALR+st6HAAMOMA0GCSqGSIb3DQEBBQUAME8xCzAJBgNV
BAYTAlVTMRMwEQYDVQQIDApDYWxpZm9ybmlhMREwDwYDVQQKDAhNMkNyeXB0bzEY
MBYGA1UEAwwPSGVpa2tpIFRvaXZvbmVuMB4XDTEyMTEyMTE1Mzc1NVoXDTIzMDEw
ODE1Mzc1NVowaTELMAkGA1UEBhMCVVMxEzARBgNVBAgMCkNhbGlmb3JuaWExETAP
BgNVBAoMCE0yQ3J5cHRvMQ8wDQYDVQQDDAZTaWduZXIxITAfBgkqhkiG9w0BCQEW
EnNpZ25lckBleGFtcGxlLmNvbTCBnzANBgkqhkiG9w0BAQEFAAOBjQAwgYkCgYEA
ofPAS4QDVMTb3ZV1S9LjS2Ne++loMjp5Ols88a48ZRGhoobZRSDBqDzpZMZcmlju
rtNOrweVgF9M/mS9Za4skfz6v9yqX9o2TAp3Yeak9qNUkr85EoRE2asS2nhDILZQ
bJ2HOieGlRSnnPLYNin7HiRkYRNItd4XYUlsKmHaA7ECAwEAAaN7MHkwCQYDVR0T
BAIwADAsBglghkgBhvhCAQ0EHxYdT3BlblNTTCBHZW5lcmF0ZWQgQ2VydGlmaWNh
dGUwHQYDVR0OBBYEFAd9E8Cv9eRjzXxkaP/SZ/wnRtwEMB8GA1UdIwQYMBaAFIDZ
ah4V/othUWJgTbPMlUR4LYnmMA0GCSqGSIb3DQEBBQUAA4GBAABkvL5LQnJUyn4C
KIeQB8jLrawY+om7HqggwRo50uO6ttkctr+7x9xGO5msgROZ94ifsq4Z/9c3woOq
ysjSAx/OALiGKrAtgOiDwIM0it2fdcXfYf/MwYur4OETAv9jSx1YC106pOmjtToZ
L9ykwkq0Rl4M+llOxTFfohiqyKSS
-----END CERTIFICATE-----
