Certificate:
    Data:
        Version: 3 (0x2)
        Serial Number: 3 (0x3)
    Signature Algorithm: sha1WithRSAEncryption
        Issuer: C=US, O=M2Crypto ca, CN=localhost
        Validity
            Not Before: Nov 25 09:53:33 2015 GMT
            Not After : Nov 22 09:53:33 2025 GMT
        Subject: C=US, O=M2Crypto signer, CN=localhost/emailAddress=signer@example.com
        Subject Public Key Info:
            Public Key Algorithm: rsaEncryption
                Public-Key: (2048 bit)
                Modulus:
                    00:e7:21:54:32:3c:2c:cf:74:fd:b3:7a:95:66:64:
                    ef:3a:1b:25:69:a5:a8:32:a8:52:c9:1b:f7:e8:78:
                    37:d4:04:75:c6:50:eb:11:de:bf:e1:c7:33:9c:e9:
                    d1:22:9c:a8:f5:67:35:85:6a:8e:55:f8:db:ad:ad:
                    7a:09:8d:5c:24:c7:cb:ea:16:0f:9c:bd:c5:f9:f7:
                    b7:12:e5:4a:8e:a8:6a:a5:5b:d2:59:3b:06:0c:f4:
                    41:e7:cc:a0:03:27:29:50:b9:a4:2b:2c:f1:80:7d:
                    e7:bf:b9:ac:38:07:20:de:f7:da:36:1b:29:03:1e:
                    9a:74:9b:94:86:3e:2c:b6:5a:ba:42:90:2a:4a:aa:
                    60:f7:2d:a8:01:dd:43:c3:a4:02:98:94:c2:a2:ee:
                    96:ba:0d:b3:8a:a6:7e:df:a2:af:77:1b:7b:95:df:
                    b4:2e:13:c4:c3:53:bb:d4:56:c7:89:a3:af:88:99:
                    d7:e0:9a:e5:c7:ca:86:5a:79:4f:8d:1a:30:6c:7e:
                    96:6d:c4:44:e7:33:82:ba:12:0e:51:ec:37:23:20:
                    f2:42:65:c9:1e:49:87:06:af:78:13:e5:c1:53:54:
                    a4:53:69:c0:44:f6:21:ca:db:1f:d9:7e:bd:14:01:
                    4a:6a:47:c9:1d:cf:05:05:9e:13:e3:f0:8d:88:c8:
                    1e:ed
                Exponent: 65537 (0x10001)
        X509v3 extensions:
            X509v3 Basic Constraints: 
                CA:FALSE
            X509v3 Subject Key Identifier: 
                CD:C8:A1:2A:46:55:12:7D:1C:80:A8:FC:02:40:44:AF:2C:10:0A:C3
    Signature Algorithm: sha1WithRSAEncryption
         15:4c:84:77:01:c7:2a:7e:6a:d8:aa:21:0c:45:11:7c:50:2b:
         79:2f:a9:a8:1c:e5:fb:08:43:0f:6e:2c:2c:3b:d5:1f:36:92:
         65:3e:29:e3:5c:87:04:2c:8b:1a:63:77:19:9e:40:52:7a:06:
         18:7d:76:6b:b5:16:66:50:47:a4:4e:29:77:0c:eb:e3:0e:88:
         52:ba:cf:fb:1a:b0:fc:19:36:84:25:db:e8:e2:ae:89:0e:bb:
         51:0c:e4:13:0b:b3:a5:70:83:66:98:b4:51:85:cf:fe:0c:5d:
         f3:ec:08:af:34:20:70:d4:af:6d:66:07:52:71:60:03:03:eb:
         01:76:a0:eb:66:62:6a:68:9d:72:fe:07:3e:56:6f:b7:01:6c:
         f7:63:72:79:b2:c0:fe:5f:dc:42:ef:0e:35:36:10:38:06:8b:
         de:63:d1:ca:f5:ed:1e:b7:73:c4:c3:df:b0:a4:8d:b9:f6:8c:
         2d:1d:be:c0:07:2d:7c:ea:6f:78:d7:cd:00:bd:02:55:6a:01:
         61:48:f2:13:a7:ea:9f:e0:0f:72:12:58:e2:9d:f4:ba:21:42:
         a1:42:cd:1c:b4:e9:96:0b:8e:1e:75:6d:f6:4b:7b:94:c8:10:
         4d:c0:a7:2c:8f:5f:97:ad:97:ba:a7:b1:16:1c:bb:96:d4:c0:
         ef:cb:19:41
-----BEGIN CERTIFICATE-----
MIIDPDCCAiSgAwIBAgIBAzANBgkqhkiG9w0BAQUFADA3MQswCQYDVQQGEwJVUzEU
MBIGA1UEChMLTTJDcnlwdG8gY2ExEjAQBgNVBAMTCWxvY2FsaG9zdDAeFw0xNTEx
MjUwOTUzMzNaFw0yNTExMjIwOTUzMzNaMF4xCzAJBgNVBAYTAlVTMRgwFgYDVQQK
Ew9NMkNyeXB0byBzaWduZXIxEjAQBgNVBAMTCWxvY2FsaG9zdDEhMB8GCSqGSIb3
DQEJARYSc2lnbmVyQGV4YW1wbGUuY29tMIIBIjANBgkqhkiG9w0BAQEFAAOCAQ8A
MIIBCgKCAQEA5yFUMjwsz3T9s3qVZmTvOhslaaWoMqhSyRv36Hg31AR1xlDrEd6/
4ccznOnRIpyo9Wc1hWqOVfjbra16CY1cJMfL6hYPnL3F+fe3EuVKjqhqpVvSWTsG
DPRB58ygAycpULmkKyzxgH3nv7msOAcg3vfaNhspAx6adJuUhj4stlq6QpAqSqpg
9y2oAd1Dw6QCmJTCou6Wug2ziqZ+36Kvdxt7ld+0LhPEw1O71FbHiaOviJnX4Jrl
x8qGWnlPjRowbH6WbcRE5zOCuhIOUew3IyDyQmXJHkmHBq94E+XBU1SkU2nARPYh
ytsf2X69FAFKakfJHc8FBZ4T4/CNiMge7QIDAQABoywwKjAJBgNVHRMEAjAAMB0G
A1UdDgQWBBTNyKEqRlUSfRyAqPwCQESvLBAKwzANBgkqhkiG9w0BAQUFAAOCAQEA
FUyEdwHHKn5q2KohDEURfFAreS+pqBzl+whDD24sLDvVHzaSZT4p41yHBCyLGmN3
GZ5AUnoGGH12a7UWZlBHpE4pdwzr4w6IUrrP+xqw/Bk2hCXb6OKuiQ67UQzkEwuz
pXCDZpi0UYXP/gxd8+wIrzQgcNSvbWYHUnFgAwPrAXag62Ziamidcv4HPlZvtwFs
92NyebLA/l/cQu8ONTYQOAaL3mPRyvXtHrdzxMPfsKSNufaMLR2+wActfOpveNfN
AL0CVWoBYUjyE6fqn+APchJY4p30uiFCoULNHLTplguOHnVt9kt7lMgQTcCnLI9f
l62XuqexFhy7ltTA78sZQQ==
-----END CERTIFICATE-----
-----BEGIN RSA PRIVATE KEY-----
MIIEogIBAAKCAQEA5yFUMjwsz3T9s3qVZmTvOhslaaWoMqhSyRv36Hg31AR1xlDr
Ed6/4ccznOnRIpyo9Wc1hWqOVfjbra16CY1cJMfL6hYPnL3F+fe3EuVKjqhqpVvS
WTsGDPRB58ygAycpULmkKyzxgH3nv7msOAcg3vfaNhspAx6adJuUhj4stlq6QpAq
Sqpg9y2oAd1Dw6QCmJTCou6Wug2ziqZ+36Kvdxt7ld+0LhPEw1O71FbHiaOviJnX
4Jrlx8qGWnlPjRowbH6WbcRE5zOCuhIOUew3IyDyQmXJHkmHBq94E+XBU1SkU2nA
RPYhytsf2X69FAFKakfJHc8FBZ4T4/CNiMge7QIDAQABAoIBADli/RS7/CRGV/eI
KDAUP5Gdy9w/VVO+l093skX2E2aA9P0YekUlmV7lptr+8v41B35m8dL+cfjGoUSu
He7hOk+ni+nDMH0qYU1/Q+VdKPXiuxfzhHbDQO1WeEald9VQk+GHNkvCDPRqTnA8
GZaPromt4HAurjAoGRF6z5XFOjTMOSzirUqRTzNVd+w3CLqRU2eAoY0A9+zU1I2k
/khlTMW6IpJ/wVDgbUwqgapia0DQLTSUh6kx6KXJoajygGA6YrCjQqIw9bWBnEWC
kLMqP9hI/MCXrWQNgFOpdQKIidfjR/vbvpOCMKmvZkwDiuBHCW40c9tli6Dh1GSy
lksrIgECgYEA/asEEmzeXLW03azWchcYhsVm5EIWVpM2rb96+NYk1zBbV/B/r6lE
wLx2Zdud8lXdpXk29EYmvVR+vFUVuqtReBPUlDwo0AvM5eRUWD7ibqXkVSTyD5FA
FlgVp4MEM0gveXGfGfJOY4jddPMSh1juisRRrlv2vVPJqdapwG/P0MkCgYEA6UFF
s/oC/WLgku1Vh6SVVSw5jp66eFHvavJJy00l6bkswIVesvOJ0j1dfuzTraGYgk7K
6KxtVSK1pXsg+wmja2XpZAcCiaXrvrSIP6zrRxCbLnV8EDXFJ6oq69Ca4NpbShvh
ZGI/9/d7BljNA5QGw9hWu5vwVbCccwLYoFOZMwUCgYAPi1tEhcdahwf+TYkWlLO8
DnyvoB0eUQcYvpMajITVavEuAl7QtN6xsNrQgxS6tOhQK41iiqn1ECh0AgLC3Zyw
bwanzsfxd8emjsdcYP4fKatETG9I5O24cM1i5nRrcBD4sC2/uUl0b/6iHAMWqCx1
9HHM7XXBRFEnRzA/yppBgQKBgHUT5SesItoKSkyVQev+qVICC7XRaClCfxjAGlgo
FhKVdqf/iYPrB892K7qspqctSD6HzAMzoQEtld1Ey04WDWe31Ij3l8d9d7HWLdlA
MywNYsbUA3yjcJ0zJa4Nm9+m2lF9Ywme4xrUpnSOGAFmyGp+6THr2Js6NZzo3dDD
hU79AoGABwcWCKe8E3LoQsgnMX+HypAq1gLxRsnmz8MEjVN/TaIxTahgcjOy/2zu
YvUzuPQPkM3qt+SU8iR05wOsDb4qRigAiRiHGExu2hi82nqvTfpuMjMnHHOsALtA
DjXHHYMJSSMFAs2p1F70IbiCwKu27tAxLA+ZN6VaHodQlHIBPj4=
-----END RSA PRIVATE KEY-----
