Certificate:
    Data:
        Version: 3 (0x2)
        Serial Number: 3 (0x3)
        Signature Algorithm: sha1WithRSAEncryption
        Issuer: C=US, ST=CA, O=M2Crypto CA, CN=localhost
        Validity
            Not Before: Apr 22 04:40:51 2006 GMT
            Not After : Apr 22 04:40:51 2007 GMT
        Subject: C=US, ST=CA, O=M2Crypto Signer, CN=localhost/emailAddress=signer@example.com
        Subject Public Key Info:
            Public Key Algorithm: rsaEncryption
            RSA Public Key: (1024 bit)
                Modulus (1024 bit):
                    00:cb:a8:b2:14:0b:d9:4a:d6:19:a6:1a:bf:b0:5e:
                    cb:7c:90:c3:b4:60:5f:f6:97:14:81:e3:c8:12:a0:
                    03:39:57:a2:f6:63:66:7d:14:04:9a:f1:d3:b8:d8:
                    72:f0:70:6e:ee:b2:ff:f1:5c:b9:ba:45:1a:cf:d4:
                    66:7c:72:04:86:8f:cf:19:e4:22:ab:c4:c0:23:9d:
                    15:f6:1c:79:bf:0a:25:5d:1b:02:82:68:5e:27:2b:
                    af:24:cc:d2:17:79:ad:58:30:e0:42:79:6b:1a:12:
                    03:03:83:d2:b9:1a:a7:aa:ff:6a:fc:c3:33:6d:77:
                    18:84:b9:86:f9:07:3d:3d:b3
                Exponent: 65537 (0x10001)
        X509v3 extensions:
            X509v3 Basic Constraints: 
                CA:FALSE
            Netscape Comment: 
                OpenSSL Generated Certificate
            X509v3 Subject Key Identifier: 
                BB:63:CA:27:FC:2D:53:8A:8D:DB:26:E8:8B:AE:2D:5C:85:3D:01:29
            X509v3 Authority Key Identifier: 
                keyid:5C:F9:C5:9B:B0:02:37:3C:66:73:4D:0E:CB:5A:3D:BB:3A:46:22:DD

    Signature Algorithm: sha1WithRSAEncryption
        2e:42:66:64:c5:21:dc:6c:2b:b7:4d:2a:a0:8a:2c:72:b2:89:
        7d:55:3f:85:9f:57:2e:3d:59:5b:f6:8b:7a:11:e1:fc:d6:c8:
        77:d5:1b:ff:65:51:98:93:f4:08:d0:9b:80:2d:df:b4:65:59:
        28:ec:e4:ba:1e:e0:41:99:b6:1c:b0:48:19:00:fd:ae:da:61:
        7c:24:81:ec:d5:bd:1a:c3:6c:43:b3:09:ae:40:0a:75:ae:a0:
        fd:a0:57:96:96:ac:b6:c0:56:db:7b:15:41:93:8e:10:cf:8c:
        26:35:4d:2c:03:89:5d:e5:5c:7f:c3:dd:a5:97:a5:ae:c6:e6:
        1c:8b
-----BEGIN CERTIFICATE-----
MIICoDCCAgmgAwIBAgIBAzANBgkqhkiG9w0BAQUFADBEMQswCQYDVQQGEwJVUzEL
MAkGA1UECBMCQ0ExFDASBgNVBAoTC00yQ3J5cHRvIENBMRIwEAYDVQQDEwlsb2Nh
bGhvc3QwHhcNMDYwNDIyMDQ0MDUxWhcNMDcwNDIyMDQ0MDUxWjBrMQswCQYDVQQG
EwJVUzELMAkGA1UECBMCQ0ExGDAWBgNVBAoTD00yQ3J5cHRvIFNpZ25lcjESMBAG
A1UEAxMJbG9jYWxob3N0MSEwHwYJKoZIhvcNAQkBFhJzaWduZXJAZXhhbXBsZS5j
b20wgZ8wDQYJKoZIhvcNAQEBBQADgY0AMIGJAoGBAMuoshQL2UrWGaYav7Bey3yQ
w7RgX/aXFIHjyBKgAzlXovZjZn0UBJrx07jYcvBwbu6y//FcubpFGs/UZnxyBIaP
zxnkIqvEwCOdFfYceb8KJV0bAoJoXicrryTM0hd5rVgw4EJ5axoSAwOD0rkap6r/
avzDM213GIS5hvkHPT2zAgMBAAGjezB5MAkGA1UdEwQCMAAwLAYJYIZIAYb4QgEN
BB8WHU9wZW5TU0wgR2VuZXJhdGVkIENlcnRpZmljYXRlMB0GA1UdDgQWBBS7Y8on
/C1Tio3bJuiLri1chT0BKTAfBgNVHSMEGDAWgBRc+cWbsAI3PGZzTQ7LWj27OkYi
3TANBgkqhkiG9w0BAQUFAAOBgQAuQmZkxSHcbCu3TSqgiixysol9VT+Fn1cuPVlb
9ot6EeH81sh31Rv/ZVGYk/QI0JuALd+0ZVko7OS6HuBBmbYcsEgZAP2u2mF8JIHs
1b0aw2xDswmuQAp1rqD9oFeWlqy2wFbbexVBk44Qz4wmNU0sA4ld5Vx/w92ll6Wu
xuYciw==
-----END CERTIFICATE-----
