Certificate:
    Data:
        Version: 3 (0x2)
        Serial Number: 2 (0x2)
    Signature Algorithm: sha1WithRSAEncryption
        Issuer: C=US, ST=California, O=M2Crypto, CN=Heikki Toivonen
        Validity
            Not Before: Nov 26 21:33:12 2015 GMT
            Not After : Nov 23 21:33:12 2025 GMT
        Subject: C=US, ST=California, O=M2Crypto, CN=X509
        Subject Public Key Info:
            Public Key Algorithm: rsaEncryption
                Public-Key: (1024 bit)
                Modulus:
                    00:da:2f:7b:77:b1:51:af:2c:29:c6:b0:4c:ae:c8:
                    54:4e:b6:fa:15:9d:0a:21:9a:d6:e3:eb:e0:bf:41:
                    66:58:c6:73:13:a4:81:29:8f:f0:1e:68:ff:ce:07:
                    8a:2f:f4:13:bb:d2:a5:73:a4:1d:09:36:75:2a:8b:
                    fb:be:11:d3:2b:8b:e8:34:b1:d4:5c:21:7e:82:5f:
                    cc:aa:52:67:d5:92:e8:e3:b2:06:5e:04:72:5f:66:
                    43:9e:6c:53:d8:21:3f:38:dd:78:29:a3:d8:d5:ae:
                    23:49:88:28:40:b4:4e:61:70:0a:a5:bc:4e:fd:83:
                    8b:cf:43:c0:c2:03:f7:cf:6b
                Exponent: 65537 (0x10001)
        X509v3 extensions:
            X509v3 Basic Constraints: 
                CA:FALSE
            X509v3 Subject Key Identifier: 
                8E:13:25:4F:EF:B6:B0:60:C3:45:6D:4A:5C:28:CF:C9:04:EF:6B:1A
    Signature Algorithm: sha1WithRSAEncryption
         31:2f:60:27:3b:47:a5:4c:99:3b:c9:a7:02:b8:bf:39:72:f0:
         bd:52:24:64:a1:ad:d0:a4:92:5f:71:a9:05:0f:25:38:43:51:
         9f:59:ea:f6:bf:e1:ed:f4:c1:14:c0:af:1a:26:9c:a8:5c:d8:
         6f:f5:a6:ab:8b:63:a6:6a:cb:8c:9a:29:8c:3d:b2:be:05:92:
         e2:48:3f:36:30:95:c6:9d:1f:41:6c:d4:1f:ab:32:57:50:79:
         07:0b:99:83:79:c0:28:6c:d2:ef:0c:72:e8:c3:dd:42:90:8c:
         41:eb:69:1e:67:a3:53:20:ec:86:2b:db:e9:7b:74:1f:46:85:
         df:c2
-----BEGIN CERTIFICATE-----
MIICNTCCAZ6gAwIBAgIBAjANBgkqhkiG9w0BAQUFADBPMQswCQYDVQQGEwJVUzET
MBEGA1UECBMKQ2FsaWZvcm5pYTERMA8GA1UEChMITTJDcnlwdG8xGDAWBgNVBAMT
D0hlaWtraSBUb2l2b25lbjAeFw0xNTExMjYyMTMzMTJaFw0yNTExMjMyMTMzMTJa
MEQxCzAJBgNVBAYTAlVTMRMwEQYDVQQIEwpDYWxpZm9ybmlhMREwDwYDVQQKEwhN
MkNyeXB0bzENMAsGA1UEAxMEWDUwOTCBnzANBgkqhkiG9w0BAQEFAAOBjQAwgYkC
gYEA2i97d7FRrywpxrBMrshUTrb6FZ0KIZrW4+vgv0FmWMZzE6SBKY/wHmj/zgeK
L/QTu9Klc6QdCTZ1Kov7vhHTK4voNLHUXCF+gl/MqlJn1ZLo47IGXgRyX2ZDnmxT
2CE/ON14KaPY1a4jSYgoQLROYXAKpbxO/YOLz0PAwgP3z2sCAwEAAaMsMCowCQYD
VR0TBAIwADAdBgNVHQ4EFgQUjhMlT++2sGDDRW1KXCjPyQTvaxowDQYJKoZIhvcN
AQEFBQADgYEAMS9gJztHpUyZO8mnAri/OXLwvVIkZKGt0KSSX3GpBQ8lOENRn1nq
9r/h7fTBFMCvGiacqFzYb/Wmq4tjpmrLjJopjD2yvgWS4kg/NjCVxp0fQWzUH6sy
V1B5BwuZg3nAKGzS7wxy6MPdQpCMQetpHmejUyDshivb6Xt0H0aF38I=
-----END CERTIFICATE-----
-----BEGIN RSA PRIVATE KEY-----
MIICXgIBAAKBgQDaL3t3sVGvLCnGsEyuyFROtvoVnQohmtbj6+C/QWZYxnMTpIEp
j/AeaP/OB4ov9BO70qVzpB0JNnUqi/u+EdMri+g0sdRcIX6CX8yqUmfVkujjsgZe
BHJfZkOebFPYIT843Xgpo9jVriNJiChAtE5hcAqlvE79g4vPQ8DCA/fPawIDAQAB
AoGBAKaIc27qUvSnesOCsST/Fwp1svBoSuFXdAnHcmXInzvHTPKDL2rvyFENx6IU
My9i1uUXZN2dN+ReQpPVALMUm95KLoVGeKUyZTUSvLufbiUs6axcXROpADPSGmVB
b1Ix2zH4epPlHGUJxHgg95maTsPCtFzSbDqgNOIv+7FThHKxAkEA8aWzJW2nUG1a
0oADBn0DwzduQpwG++bcsAtyoCuC6F1NLQStr23BgtbYtKrEUAn+J1IXh/k2+YcX
kTX7z++4dwJBAOclCnQPxIh27cM7MzxEtGD7UmDiROfqNybcJaL3isyK+zKc9N5H
BLPVGGowU+vF4xEUg3vdlcEo2MtqOphZ0a0CQQDOrJ3QATz8uMrZBsuPnRS+voX7
Sl9ey1Es8F2VSCGqg0IiosG6LPE46nBl9Tf6DNHm53tgvHGccUJi2/0HF0x5AkEA
3UTvMdWaTQyUZQ056drXVfOgk5BnaB8lNrUN7mjL3Sy6dWQdYN9ZWBGJcrXa0Fw6
FzKs/5lKb4N7rZZ+izOIbQJAL0JUFCqMb06v+vyft4Nerf5dFvXKApX1fX95GXVq
jP+5aUP6nt96XLvMksCKPWBRmZvsgTqrlYE/bqMofubyTg==
-----END RSA PRIVATE KEY-----
