Certificate:
    Data:
        Version: 3 (0x2)
        Serial Number: 2 (0x2)
        Signature Algorithm: sha256WithRSAEncryption
        Issuer: C=US, ST=California, O=M2Crypto, CN=Heikki Toivonen
        Validity
            Not Before: Apr 22 14:50:27 2025 GMT
            Not After : Apr 20 14:50:27 2035 GMT
        Subject: C=US, ST=California, O=M2Crypto, CN=X509
        Subject Public Key Info:
            Public Key Algorithm: rsaEncryption
                RSA Public-Key: (2048 bit)
                Modulus:
                    00:ca:98:73:24:82:47:8c:3e:8e:50:cd:c7:48:f3:
                    3a:cd:ac:5c:1a:cc:9f:16:c7:73:f7:ca:87:84:53:
                    35:fa:1b:ba:4f:e5:f6:3d:5d:db:79:c2:a4:fa:b6:
                    f5:85:9e:bc:c0:11:a5:0c:f4:a0:3d:89:3d:64:0d:
                    c0:43:ee:8c:9f:8e:52:0a:55:e2:b3:78:00:cf:f3:
                    e9:fc:b5:27:8c:57:b7:2f:ab:a2:32:ec:f7:8a:f1:
                    cc:23:ad:0a:81:29:d1:81:d9:af:a8:e5:58:5d:40:
                    cb:a9:9c:ab:01:39:5b:a3:df:15:94:db:a5:ba:d1:
                    f6:d3:18:09:d5:f0:8a:77:8e:88:49:ef:37:62:b6:
                    5e:53:4f:d5:4c:4d:b6:67:8b:5a:d3:d6:5d:44:59:
                    a1:ff:9a:8d:74:7d:ba:e2:88:d9:02:2b:f4:ca:83:
                    c9:75:12:61:06:f7:bd:ef:7a:59:46:c5:54:c2:6b:
                    e4:cd:f0:65:eb:f8:78:a7:a9:d2:74:ab:f9:a5:a1:
                    84:fc:87:a2:00:c5:dd:68:90:56:5e:59:b4:86:86:
                    52:cf:8b:1b:a0:24:36:5f:55:c1:64:28:53:6a:ac:
                    9b:7c:e8:9d:2e:42:b4:84:c6:28:1c:c6:d4:b6:7b:
                    11:29:dd:ca:7a:7d:51:3b:fb:9e:71:62:ea:22:0e:
                    8f:43
                Exponent: 65537 (0x10001)
        X509v3 extensions:
            X509v3 Basic Constraints: 
                CA:FALSE
            X509v3 Subject Key Identifier: 
                1E:D5:B0:40:A0:8C:9A:A3:CE:A1:FE:E7:2B:7B:5D:0C:29:B4:F4:6D
    Signature Algorithm: sha256WithRSAEncryption
    Signature Value:
        92:57:6c:3b:58:94:c7:45:5c:c0:7a:06:d8:89:ff:af:5b:9f:
        43:4e:fe:95:de:64:8d:b0:e2:67:ba:85:82:20:84:41:a8:73:
        6c:f2:01:17:53:7d:f7:ff:93:52:30:56:ac:4b:fa:99:56:d7:
        42:f6:52:1e:7a:df:a5:d5:ec:cb:f2:a1:05:ec:be:51:86:39:
        c9:4f:d8:fe:58:c6:b5:4d:4d:22:66:a9:aa:59:fb:22:47:99:
        42:9e:c9:1c:57:d7:de:93:8b:ef:62:f4:79:64:9c:f8:18:9f:
        ef:22:b0:55:5b:4f:0c:cc:c4:15:76:3a:5d:20:06:7b:ea:cb:
        25:f5:32:93:fd:c6:56:6f:07:8b:4e:20:d0:9c:c6:07:3d:78:
        28:68:60:d1:62:fb:f5:f7:52:1f:b5:c6:b4:d1:50:08:80:ee:
        d4:c3:cb:3b:19:03:64:fd:27:29:e6:4a:7d:e0:66:84:f7:92:
        06:29:79:2a:85:be:c5:4d:8b:a2:fd:68:28:f5:79:fa:e5:90:
        df:06:10:a7:b4:9f:33:65:12:2b:80:0d:01:11:fa:33:bd:e4:
        29:0f:2c:cc:a2:29:6f:71:45:aa:22:f5:69:bd:c5:e6:cc:6d:
        5d:d9:97:75:f4:0b:b5:c9:08:f6:05:c9:6f:80:25:82:58:22:
        36:82:c5:50
-----BEGIN CERTIFICATE-----
MIIDOjCCAiKgAwIBAgIBAjANBgkqhkiG9w0BAQsFADBPMQswCQYDVQQGEwJVUzET
MBEGA1UECAwKQ2FsaWZvcm5pYTERMA8GA1UECgwITTJDcnlwdG8xGDAWBgNVBAMM
D0hlaWtraSBUb2l2b25lbjAeFw0yNTA0MjIxNDUwMjdaFw0zNTA0MjAxNDUwMjda
MEQxCzAJBgNVBAYTAlVTMRMwEQYDVQQIDApDYWxpZm9ybmlhMREwDwYDVQQKDAhN
MkNyeXB0bzENMAsGA1UEAwwEWDUwOTCCASIwDQYJKoZIhvcNAQEBBQADggEPADCC
AQoCggEBAMqYcySCR4w+jlDNx0jzOs2sXBrMnxbHc/fKh4RTNfobuk/l9j1d23nC
pPq29YWevMARpQz0oD2JPWQNwEPujJ+OUgpV4rN4AM/z6fy1J4xXty+rojLs94rx
zCOtCoEp0YHZr6jlWF1Ay6mcqwE5W6PfFZTbpbrR9tMYCdXwineOiEnvN2K2XlNP
1UxNtmeLWtPWXURZof+ajXR9uuKI2QIr9MqDyXUSYQb3ve96WUbFVMJr5M3wZev4
eKep0nSr+aWhhPyHogDF3WiQVl5ZtIaGUs+LG6AkNl9VwWQoU2qsm3zonS5CtITG
KBzG1LZ7ESndynp9UTv7nnFi6iIOj0MCAwEAAaMsMCowCQYDVR0TBAIwADAdBgNV
HQ4EFgQUHtWwQKCMmqPOof7nK3tdDCm09G0wDQYJKoZIhvcNAQELBQADggEBAJJX
bDtYlMdFXMB6BtiJ/69bn0NO/pXeZI2w4me6hYIghEGoc2zyARdTfff/k1IwVqxL
+plW10L2Uh5636XV7MvyoQXsvlGGOclP2P5YxrVNTSJmqapZ+yJHmUKeyRxX196T
i+9i9HlknPgYn+8isFVbTwzMxBV2Ol0gBnvqyyX1MpP9xlZvB4tOINCcxgc9eCho
YNFi+/X3Uh+1xrTRUAiA7tTDyzsZA2T9JynmSn3gZoT3kgYpeSqFvsVNi6L9aCj1
efrlkN8GEKe0nzNlEiuADQER+jO95CkPLMyiKW9xRaoi9Wm9xebMbV3Zl3X0C7XJ
CPYFyW+AJYJYIjaCxVA=
-----END CERTIFICATE-----
-----BEGIN RSA PRIVATE KEY-----
MIIEpQIBAAKCAQEAyphzJIJHjD6OUM3HSPM6zaxcGsyfFsdz98qHhFM1+hu6T+X2
PV3becKk+rb1hZ68wBGlDPSgPYk9ZA3AQ+6Mn45SClXis3gAz/Pp/LUnjFe3L6ui
Muz3ivHMI60KgSnRgdmvqOVYXUDLqZyrATlbo98VlNulutH20xgJ1fCKd46ISe83
YrZeU0/VTE22Z4ta09ZdRFmh/5qNdH264ojZAiv0yoPJdRJhBve973pZRsVUwmvk
zfBl6/h4p6nSdKv5paGE/IeiAMXdaJBWXlm0hoZSz4sboCQ2X1XBZChTaqybfOid
LkK0hMYoHMbUtnsRKd3Ken1RO/uecWLqIg6PQwIDAQABAoIBAFTXuiSYcIkha20Y
eDQrND2MyHeqqJccCQtE5DK8vDaVJRWvusrhQvf/VSLvuutt2iLfYM0HpxGOJ0j+
3z0zqe1p5x6P8CPzhfeQcLWVUc4ar8sFaCRGi7ZC45gvL95+mk/0T3V+Ml6/M2tB
AnY9RIzgcEPKJmIR6vllMD1JgltldRvVgIE8hTjphbwrNnieeAsB1YUbriVxaVwn
by8skGMLjwJEEX1kxTFGU8NoYK2w718K+2c1AOdh1Sl2uvJtFBYewYGFUgJ+G63R
523500LwQL4x5mlqohYyVRqTvJYT/tNlltIfWE1GCDxBvk0sM/YsgHHp3ACW3Lly
PHcBqaECgYEA5AofgANvZ2LHcwIvKZrADUXjovtXoIu9ezghdimpdG73DCtmQhfy
YFC6kHjwvBs1f4InLkICdSelcxI06vOmKuOxKNn++4izMbSGNI5NIv4VRqF/nZf5
FdYgHLGQARypjLMz9e0/MyOvLni/Iz2q6DzIQa+Flbob7jcD3qNKZqMCgYEA42+r
jzgqm/Ht+oEkqIOGzx1f8asP5sGD3TecJSutxQQ4WGs5roHeWsAj1/IUejlIGnY9
OAe+nICsgWjHUHTYZW7ywYOE1cL3tS94esog3PLZtxzj4ImY9ZMihN49f1N1X24z
9D3mwi1EbHcV17c85kW71tn5El2+o0reEZRD3uECgYEAyojPJ2Rlqp5J5LS47Ku8
DU3YeyXe0wGp3emhlpA0J+xyUQWuwd8A71hkCvLPZVKJNmGDqQsJocH/qW8vPsn9
+LPX4h+T3xWvieL7G2yTyBOBFAVWEcMrgKB4TuPJsaMiV4vGB5OagTIdYhnuMT+R
LsjlV6mr7KqqKe4E6tV+vB8CgYEAyuPzx+/zEurfwXkzmqC6wkkSLiTMKq63U8Eo
KoCso/T/zuDYtDRmh86gKyRp4B75k6GnOzStdi/TtB4ksEGMSfCP3tHUzlz/XULb
1645YuHCFvhO0R/utCRtxtn7QnrRWjCVaG1QTijTwW76rVVpnoLW7vPEnf3C8yj2
sffyFAECgYEAs+5JbQZuB7O+/ujtuXyZtckSAWYOdVI4uwG9eFgh2b4EQGIRErIh
Mx0SUa0Dc/HSM9QJ+ZEQG42O66jC9wA0EZlsjNdYAJVJAnWARWhqDmRyHDLLOwz1
XHdGs9trY2L3jGwKQ/28DX9jCbCeaPF6NOFTvWWjuCi3Sb4ystCBaNY=
-----END RSA PRIVATE KEY-----
