Certificate:
    Data:
        Version: 3 (0x2)
        Serial Number: 2 (0x2)
        Signature Algorithm: sha1WithRSAEncryption
        Issuer: C=US, ST=CA, O=M2Crypto CA, CN=localhost
        Validity
            Not Before: Apr 22 04:38:57 2006 GMT
            Not After : Apr 22 04:38:57 2007 GMT
        Subject: C=US, ST=CA, O=M2Crypto X509, CN=localhost
        Subject Public Key Info:
            Public Key Algorithm: rsaEncryption
            RSA Public Key: (1024 bit)
                Modulus (1024 bit):
                    00:b8:52:61:f5:c1:41:91:1b:a6:03:a7:e8:b5:a3:
                    db:72:e2:84:9b:8a:2c:49:ad:bd:03:51:a4:a6:95:
                    6b:bb:29:fc:9a:95:cf:ca:fb:c5:16:94:e5:23:9c:
                    92:9d:1e:cf:fa:31:35:55:ae:8b:cf:af:73:d5:92:
                    cf:2a:0f:3d:3b:cf:15:b9:d8:de:bb:93:7b:ba:54:
                    d5:4a:ad:3e:c2:6f:76:bf:35:7c:be:ff:88:31:84:
                    90:83:4b:54:b9:9b:4f:9a:a5:55:d8:6d:45:7c:64:
                    6d:be:6c:8f:e1:06:6f:73:f7:35:a3:2c:1e:48:99:
                    37:68:9f:b1:d3:83:fa:d7:c7
                Exponent: 65537 (0x10001)
        X509v3 extensions:
            X509v3 Basic Constraints: 
                CA:FALSE
            Netscape Comment: 
                OpenSSL Generated Certificate
            X509v3 Subject Key Identifier: 
                10:AF:83:F2:BF:F1:8F:BE:E1:96:39:CA:CE:2F:CD:F8:99:14:C5:17
            X509v3 Authority Key Identifier: 
                keyid:5C:F9:C5:9B:B0:02:37:3C:66:73:4D:0E:CB:5A:3D:BB:3A:46:22:DD

    Signature Algorithm: sha1WithRSAEncryption
        60:a5:2d:48:11:3e:55:b0:47:e4:f9:8a:8e:11:66:8b:08:d4:
        59:b7:c9:6e:74:87:51:d8:c7:43:56:7b:c2:b5:fe:11:61:b7:
        37:90:17:6b:d1:49:07:5b:58:89:1f:43:d7:1f:de:f1:a8:58:
        28:7b:96:f2:b5:af:da:bf:4e:e5:a8:0f:36:bd:3a:88:9c:a2:
        41:e6:6a:3b:b8:4a:38:48:6f:77:cd:ae:4a:07:51:90:e1:01:
        18:82:da:d9:a4:a8:b5:a4:6e:82:b8:b0:cc:f7:4a:73:b6:d5:
        4c:0b:09:02:c1:0e:3c:31:5f:5b:d2:00:91:e8:dc:a1:e2:a3:
        17:59
-----BEGIN CERTIFICATE-----
MIICezCCAeSgAwIBAgIBAjANBgkqhkiG9w0BAQUFADBEMQswCQYDVQQGEwJVUzEL
MAkGA1UECBMCQ0ExFDASBgNVBAoTC00yQ3J5cHRvIENBMRIwEAYDVQQDEwlsb2Nh
bGhvc3QwHhcNMDYwNDIyMDQzODU3WhcNMDcwNDIyMDQzODU3WjBGMQswCQYDVQQG
EwJVUzELMAkGA1UECBMCQ0ExFjAUBgNVBAoTDU0yQ3J5cHRvIFg1MDkxEjAQBgNV
BAMTCWxvY2FsaG9zdDCBnzANBgkqhkiG9w0BAQEFAAOBjQAwgYkCgYEAuFJh9cFB
kRumA6fotaPbcuKEm4osSa29A1GkppVruyn8mpXPyvvFFpTlI5ySnR7P+jE1Va6L
z69z1ZLPKg89O88Vudjeu5N7ulTVSq0+wm92vzV8vv+IMYSQg0tUuZtPmqVV2G1F
fGRtvmyP4QZvc/c1oyweSJk3aJ+x04P618cCAwEAAaN7MHkwCQYDVR0TBAIwADAs
BglghkgBhvhCAQ0EHxYdT3BlblNTTCBHZW5lcmF0ZWQgQ2VydGlmaWNhdGUwHQYD
VR0OBBYEFBCvg/K/8Y++4ZY5ys4vzfiZFMUXMB8GA1UdIwQYMBaAFFz5xZuwAjc8
ZnNNDstaPbs6RiLdMA0GCSqGSIb3DQEBBQUAA4GBAGClLUgRPlWwR+T5io4RZosI
1Fm3yW50h1HYx0NWe8K1/hFhtzeQF2vRSQdbWIkfQ9cf3vGoWCh7lvK1r9q/TuWo
Dza9OoicokHmaju4SjhIb3fNrkoHUZDhARiC2tmkqLWkboK4sMz3SnO21UwLCQLB
DjwxX1vSAJHo3KHioxdZ
-----END CERTIFICATE-----
-----BEGIN RSA PRIVATE KEY-----
MIICXgIBAAKBgQC4UmH1wUGRG6YDp+i1o9ty4oSbiixJrb0DUaSmlWu7Kfyalc/K
+8UWlOUjnJKdHs/6MTVVrovPr3PVks8qDz07zxW52N67k3u6VNVKrT7Cb3a/NXy+
/4gxhJCDS1S5m0+apVXYbUV8ZG2+bI/hBm9z9zWjLB5ImTdon7HTg/rXxwIDAQAB
AoGAcmUeywlwCgEg3a/+K41Qi1KufmIY7nlXj5HCIGkn/XcngUFtP0tWnJc4RwvL
qpwO8/ZKZaz4tKLtvyVoUXA3zbJ0wP9JTqtYOTdfxPvfkIHcGwI/YI+xpJXj/2ZG
//biP3GjnO1gAH53YqRSOC7fD7J9OStPEq2uSDFArCuKpeECQQDppTtqRCF3BxCq
sLZACVpx+rk52SWLHEgE6OYbID6kEl9aiiBkRUqACc3fBkwiIXmiIR+vctcccinT
qSdI8E9JAkEAyfUMPzvXMjO0qAjVdTlBdlZETawEASpdfId+gob+EcXr5qo+fim8
WyU1C6M1F1DEz7sUKzyx8fugNH7QVNQejwJBALkrvt8FiBAxhUACNS6jOw9CSjJS
qrKJg3qAqn2tHHgkJ3Y2Kl3NnLHFE2hCMWyLYz7fSaFfPqTIxeV+Fih0bCECQQCD
bd/sfusLFq8o86bGxN4fPwDwc1Of1oxEcIEaPPO3aVCeKojE3jBgOJSO4EW6yKts
bNkxUiyTyCd4Qlcd/XVtAkEAqSwMV9GNoxc2dzeOYOamuSyRDdzvT4rdEOOE8VnQ
yjcu6zgLanbf9lfcy7Ma9NlmTExTniiX2+q8VNmnbk32NQ==
-----END RSA PRIVATE KEY-----
