Certificate:
    Data:
        Version: 3 (0x2)
        Serial Number: 2 (0x2)
    Signature Algorithm: sha1WithRSAEncryption
        Issuer: C=US, O=M2Crypto ca, CN=localhost
        Validity
            Not Before: Nov 25 09:53:33 2015 GMT
            Not After : Nov 22 09:53:33 2025 GMT
        Subject: C=US, O=M2Crypto x509, CN=localhost
        Subject Public Key Info:
            Public Key Algorithm: rsaEncryption
                Public-Key: (2048 bit)
                Modulus:
                    00:d1:df:c9:88:e2:aa:38:8e:05:ad:f2:73:77:30:
                    ac:a3:e3:ac:c1:1e:9a:9d:07:81:dc:1d:a2:89:f9:
                    e7:2f:52:78:5b:e4:1d:94:94:b7:1e:19:f1:45:46:
                    e5:df:55:c5:62:19:62:3c:f0:d8:1c:1c:98:4f:eb:
                    d3:17:3d:f1:c8:00:b1:78:08:4d:e6:ca:08:e7:35:
                    f1:a5:6d:63:b9:31:b2:ec:9c:21:23:97:8f:ab:a3:
                    50:6d:44:17:20:a0:49:e4:8c:48:a9:85:eb:4c:80:
                    57:72:3e:77:41:7f:dd:99:06:19:4c:75:11:ab:8a:
                    1f:46:da:17:41:22:6e:85:a9:99:d0:6d:a9:3a:05:
                    69:c5:26:b8:e8:81:3f:60:90:1a:11:46:e5:c0:ac:
                    9e:a4:98:c9:ad:5f:6e:a0:1a:26:46:7d:51:5a:0e:
                    0c:46:68:b7:d4:bb:0e:48:7a:45:77:cf:28:b2:1a:
                    5a:51:60:09:5a:0e:c0:2e:a9:e7:8c:7a:39:ee:03:
                    02:ec:a9:10:b8:07:d1:be:96:a6:0a:d8:b1:e2:c8:
                    a6:9e:5c:87:dc:b1:9d:c5:15:97:bf:3f:72:12:27:
                    fe:94:79:ac:5e:c6:19:96:f0:9c:59:5d:10:1e:02:
                    6e:48:9d:c9:88:f0:d1:a0:5e:19:bf:06:27:d5:87:
                    86:87
                Exponent: 65537 (0x10001)
        X509v3 extensions:
            X509v3 Basic Constraints: 
                CA:FALSE
            X509v3 Subject Key Identifier: 
                62:0D:15:04:B4:0E:65:7F:0F:08:05:49:53:6F:EC:FA:54:B1:C2:92
    Signature Algorithm: sha1WithRSAEncryption
         86:c9:bd:d4:e5:83:e5:b3:a4:70:9a:ec:a7:6d:03:bb:c2:e4:
         c2:30:19:7e:9c:6a:ec:e7:a7:d1:42:e4:2c:9d:30:5d:7a:c7:
         7a:03:e8:85:ad:a8:00:d4:2d:ef:03:67:63:97:9a:b5:95:b4:
         14:ca:df:dc:99:53:a4:74:9f:49:fe:17:76:62:59:11:4c:c8:
         a5:32:bd:dc:bb:32:12:d6:27:f7:f2:4a:12:01:4b:c6:a4:81:
         73:a4:fc:c5:b1:f7:27:7b:7b:62:44:74:9e:68:ca:aa:b3:a4:
         06:44:ec:d6:35:6b:54:aa:8b:29:5b:40:0e:f0:71:dd:77:c6:
         8c:9a:f5:bb:d0:60:1d:6c:8a:bd:f6:40:3c:e3:b8:ea:ca:e5:
         15:33:73:2c:2e:66:e7:5f:57:64:24:a7:10:22:90:2c:c5:83:
         f1:fe:78:5e:79:33:a1:99:49:14:26:28:5e:c8:43:13:84:f9:
         68:0e:9a:bc:0c:ac:06:8d:b1:8a:93:ee:f0:de:de:e7:a2:33:
         a2:62:ec:e4:45:29:63:e0:f9:93:5e:72:d6:37:25:63:b6:c5:
         75:c1:7e:16:3d:09:a4:9a:fe:1b:31:06:dc:9d:a6:52:5a:8c:
         e5:5f:7d:88:c8:b3:39:4a:36:90:a6:21:b2:2c:18:76:8e:3e:
         7f:53:40:6b
-----BEGIN CERTIFICATE-----
MIIDFzCCAf+gAwIBAgIBAjANBgkqhkiG9w0BAQUFADA3MQswCQYDVQQGEwJVUzEU
MBIGA1UEChMLTTJDcnlwdG8gY2ExEjAQBgNVBAMTCWxvY2FsaG9zdDAeFw0xNTEx
MjUwOTUzMzNaFw0yNTExMjIwOTUzMzNaMDkxCzAJBgNVBAYTAlVTMRYwFAYDVQQK
Ew1NMkNyeXB0byB4NTA5MRIwEAYDVQQDEwlsb2NhbGhvc3QwggEiMA0GCSqGSIb3
DQEBAQUAA4IBDwAwggEKAoIBAQDR38mI4qo4jgWt8nN3MKyj46zBHpqdB4HcHaKJ
+ecvUnhb5B2UlLceGfFFRuXfVcViGWI88NgcHJhP69MXPfHIALF4CE3mygjnNfGl
bWO5MbLsnCEjl4+ro1BtRBcgoEnkjEiphetMgFdyPndBf92ZBhlMdRGrih9G2hdB
Im6FqZnQbak6BWnFJrjogT9gkBoRRuXArJ6kmMmtX26gGiZGfVFaDgxGaLfUuw5I
ekV3zyiyGlpRYAlaDsAuqeeMejnuAwLsqRC4B9G+lqYK2LHiyKaeXIfcsZ3FFZe/
P3ISJ/6UeaxexhmW8JxZXRAeAm5IncmI8NGgXhm/BifVh4aHAgMBAAGjLDAqMAkG
A1UdEwQCMAAwHQYDVR0OBBYEFGINFQS0DmV/DwgFSVNv7PpUscKSMA0GCSqGSIb3
DQEBBQUAA4IBAQCGyb3U5YPls6RwmuynbQO7wuTCMBl+nGrs56fRQuQsnTBdesd6
A+iFragA1C3vA2djl5q1lbQUyt/cmVOkdJ9J/hd2YlkRTMilMr3cuzIS1if38koS
AUvGpIFzpPzFsfcne3tiRHSeaMqqs6QGROzWNWtUqospW0AO8HHdd8aMmvW70GAd
bIq99kA847jqyuUVM3MsLmbnX1dkJKcQIpAsxYPx/nheeTOhmUkUJiheyEMThPlo
Dpq8DKwGjbGKk+7w3t7nojOiYuzkRSlj4PmTXnLWNyVjtsV1wX4WPQmkmv4bMQbc
naZSWozlX32IyLM5SjaQpiGyLBh2jj5/U0Br
-----END CERTIFICATE-----
-----BEGIN RSA PRIVATE KEY-----
MIIEpQIBAAKCAQEA0d/JiOKqOI4FrfJzdzCso+OswR6anQeB3B2iifnnL1J4W+Qd
lJS3HhnxRUbl31XFYhliPPDYHByYT+vTFz3xyACxeAhN5soI5zXxpW1juTGy7Jwh
I5ePq6NQbUQXIKBJ5IxIqYXrTIBXcj53QX/dmQYZTHURq4ofRtoXQSJuhamZ0G2p
OgVpxSa46IE/YJAaEUblwKyepJjJrV9uoBomRn1RWg4MRmi31LsOSHpFd88oshpa
UWAJWg7ALqnnjHo57gMC7KkQuAfRvpamCtix4simnlyH3LGdxRWXvz9yEif+lHms
XsYZlvCcWV0QHgJuSJ3JiPDRoF4ZvwYn1YeGhwIDAQABAoIBAC4572byHfIU/hVB
OMOA+hWjGTL0LbP2qli0Qk/Htm8K6C29QfKvCuJbbnQG2KzndHFWC/hGSCNw/O9l
jvooj6+wz2YT1izGRU2/6Pi57mQlGTbacMYpJOD2OMnIXJu4Em5/o6WLNLeF8Tzd
m2DW7BU/baUUiA7Tfm4ZrVOQZO2Vdn4Kle3+cu3qyyHqG+pbyWY3tBK9S7NzVAup
xHNQ4GCKKHpL+F8BZNjwAfjCEJVkmA1xxp5BAPkU8mZErJz9eRiljPCVHz4RbRKw
dyYPLscFoNPrZXkuR81m3jqFo72qaJx2h2SiY18NBWqKiE/QQY+6z2mxF9hRZs1e
r+MwwfkCgYEA7xTMt/+MPP9Vfaqn7NT3zObzCm0ao5hx96nv9ZWic5oeXXm41Ebx
jImFLRkUxsL6mKRbv/3LzwZNLTD8zhDr2l0wigAMxwX9wtcl+UHRcrHgt4DrOVz+
adHRFG40BSvEgIZ6/hS0C0sWDjj/2HXzEM9ONj/fKeh1jjmSh8okLHsCgYEA4Lnf
Ht3/f6h4qeArixxQrOWjrOOj4oZg5ILGEbea+kdPKyElKeY3KtOp4jxTC3ngix9t
1okAp1Ks/lE9mo/BIN8b+OCn/vDBRcpzvvQ5XjAHoOnCgblcG7ZtAf0JrsdiwqeX
pRmR8MKiNC8Vtrys5US9GiYRyZogozySOww1zmUCgYEAtBIVcwxtws+Jw4HSwuVQ
0qqsKZEtfERoqmH7Uxxl4+4TqtHwLSpV6kT14pa+eEoI1wkL9dohNIeJf10jO82w
5qJD2dzZwtk3XRYRCuDQ8TMajvvxrx3knS0j7eBnG/HwKeGgJ1jOlqbyMLorsQx9
i46oWOHYosbsK7gfLllIz5sCgYEArx5ozmb0eQhRrx8vD2JrQ7BXkZx600UgMDHw
I1JOhIYZHWTgzvvFNaxnkBKuLB03a3J8Z1evmLQGds/cD5vCRdlWtORsRXBbTAVt
mPo70jffWfePSQOm0TmhTJFggECDp2ht9Ywte85QFBY094eju62LJttPtShUEqBa
24SyUTkCgYEA1jAp+PoNInbsaTGqTdi5YyR+97bfNflPPcpJoBQMPTPU8rdOfw7O
G3oZTs0LjKNiu6Kp1kFewfClAbnHwfwegxRTLGJFwMf7FSNCYiwQkgt+bG5nuWmn
tzBnhocBUxOw/cj7qKlQnWNp7bBPMdfknaCMX3MMs/qpRT2dA0dLSUk=
-----END RSA PRIVATE KEY-----
