Certificate:
    Data:
        Version: 3 (0x2)
        Serial Number: 2 (0x2)
        Signature Algorithm: sha256WithRSAEncryption
        Issuer: C=US, O=M2Crypto ca, CN=localhost
        Validity
            Not Before: Apr 29 06:58:18 2013 GMT
            Not After : Apr 27 06:58:18 2023 GMT
        Subject: C=US, O=M2Crypto x509, CN=localhost
        Subject Public Key Info:
            Public Key Algorithm: rsaEncryption
            RSA Public Key: (2048 bit)
                Modulus (2048 bit):
                    00:cc:0c:5a:e5:a7:2f:08:42:96:9c:a4:a9:20:dd:
                    1e:74:90:ee:38:22:fb:29:5e:70:f9:e6:a3:de:85:
                    a5:fd:ac:91:51:c2:08:ea:c3:8d:71:50:34:c6:3e:
                    cd:de:7b:97:33:fd:fd:d1:8c:cb:a5:be:d1:33:87:
                    40:b4:73:05:5c:32:09:d7:d0:56:de:02:bf:af:f8:
                    5a:5e:53:c8:2e:7f:5a:d6:b8:1c:5b:27:b7:cf:10:
                    3e:b2:33:22:b3:23:51:2d:19:7e:11:18:18:d0:4f:
                    a3:34:df:23:a6:ee:59:b0:67:4e:30:0e:47:93:d9:
                    f6:bf:11:99:26:6b:8c:3e:e9:3c:1f:c3:65:07:86:
                    f7:fc:b7:1f:82:80:b5:fd:c6:98:d5:bf:25:f4:38:
                    ff:ab:58:92:c0:19:6e:6a:86:d4:ff:5f:d4:a6:4b:
                    d5:68:6e:aa:08:eb:d4:11:84:68:c8:6d:f2:79:1c:
                    eb:b7:ac:c8:1a:60:24:d3:f2:69:c3:53:f0:49:e6:
                    9a:a2:a5:f3:78:00:03:63:ff:3d:3e:07:9c:b7:b2:
                    cc:9b:a0:2b:df:a7:24:e2:c7:75:c0:a5:22:f8:2b:
                    99:83:26:d9:70:82:50:77:30:4c:85:8e:b9:4a:34:
                    b3:ad:4e:e4:4e:91:0a:e1:32:b4:f4:82:bd:9f:1b:
                    9d:13
                Exponent: 65537 (0x10001)
    Signature Algorithm: sha256WithRSAEncryption
        b6:57:77:d1:21:fc:27:b9:f9:ae:32:a4:d3:dd:89:6e:8f:ee:
        10:18:e1:2b:c8:68:49:b7:32:97:20:b8:f3:2c:26:75:a3:88:
        62:da:71:c8:60:1f:ff:94:78:3f:3f:77:d9:9d:dd:30:08:7b:
        d9:74:9b:ff:02:74:56:eb:b8:05:8a:ae:14:07:6e:78:fa:9e:
        6a:d3:75:da:38:cd:eb:52:1d:31:bf:02:eb:ab:b9:66:ce:e8:
        6a:df:23:4e:65:df:c7:08:3c:35:d2:db:a3:c6:07:4e:5d:60:
        f7:ce:72:e6:db:7f:96:dd:2c:1d:0d:fb:59:d0:cc:a0:6b:60:
        c4:1b:3e:ac:c0:60:52:9e:3c:d5:46:70:01:59:7a:44:49:3e:
        b6:6f:05:85:51:5c:eb:f1:a2:67:36:c2:80:88:75:4e:97:8f:
        0b:5a:f1:4e:64:22:8c:e2:f4:0f:81:b8:90:1b:de:52:43:61:
        1a:96:b9:4b:57:2d:19:26:54:8e:41:6e:e1:c7:e8:63:96:c6:
        5e:1a:d6:93:99:8d:49:a9:43:43:ef:b7:ec:aa:e3:f1:fd:ce:
        2c:9c:78:d2:14:56:94:a0:56:c7:c4:8e:e9:9e:8e:ee:9f:68:
        a8:15:1f:d3:f7:35:4a:3f:94:3b:43:01:f3:a5:09:3d:37:32:
        19:d0:f6:e3
-----BEGIN CERTIFICATE-----
MIIC6TCCAdGgAwIBAgIBAjANBgkqhkiG9w0BAQsFADA3MQswCQYDVQQGEwJVUzEU
MBIGA1UEChMLTTJDcnlwdG8gY2ExEjAQBgNVBAMTCWxvY2FsaG9zdDAeFw0xMzA0
MjkwNjU4MThaFw0yMzA0MjcwNjU4MThaMDkxCzAJBgNVBAYTAlVTMRYwFAYDVQQK
Ew1NMkNyeXB0byB4NTA5MRIwEAYDVQQDEwlsb2NhbGhvc3QwggEiMA0GCSqGSIb3
DQEBAQUAA4IBDwAwggEKAoIBAQDMDFrlpy8IQpacpKkg3R50kO44IvspXnD55qPe
haX9rJFRwgjqw41xUDTGPs3ee5cz/f3RjMulvtEzh0C0cwVcMgnX0FbeAr+v+Fpe
U8guf1rWuBxbJ7fPED6yMyKzI1EtGX4RGBjQT6M03yOm7lmwZ04wDkeT2fa/EZkm
a4w+6Twfw2UHhvf8tx+CgLX9xpjVvyX0OP+rWJLAGW5qhtT/X9SmS9VobqoI69QR
hGjIbfJ5HOu3rMgaYCTT8mnDU/BJ5pqipfN4AANj/z0+B5y3ssyboCvfpyTix3XA
pSL4K5mDJtlwglB3MEyFjrlKNLOtTuROkQrhMrT0gr2fG50TAgMBAAEwDQYJKoZI
hvcNAQELBQADggEBALZXd9Eh/Ce5+a4ypNPdiW6P7hAY4SvIaEm3MpcguPMsJnWj
iGLacchgH/+UeD8/d9md3TAIe9l0m/8CdFbruAWKrhQHbnj6nmrTddo4zetSHTG/
AuuruWbO6GrfI05l38cIPDXS26PGB05dYPfOcubbf5bdLB0N+1nQzKBrYMQbPqzA
YFKePNVGcAFZekRJPrZvBYVRXOvxomc2woCIdU6Xjwta8U5kIozi9A+BuJAb3lJD
YRqWuUtXLRkmVI5BbuHH6GOWxl4a1pOZjUmpQ0Pvt+yq4/H9ziyceNIUVpSgVsfE
jumeju6faKgVH9P3NUo/lDtDAfOlCT03MhnQ9uM=
-----END CERTIFICATE-----
-----BEGIN RSA PRIVATE KEY-----
MIIEowIBAAKCAQEAzAxa5acvCEKWnKSpIN0edJDuOCL7KV5w+eaj3oWl/ayRUcII
6sONcVA0xj7N3nuXM/390YzLpb7RM4dAtHMFXDIJ19BW3gK/r/haXlPILn9a1rgc
Wye3zxA+sjMisyNRLRl+ERgY0E+jNN8jpu5ZsGdOMA5Hk9n2vxGZJmuMPuk8H8Nl
B4b3/LcfgoC1/caY1b8l9Dj/q1iSwBluaobU/1/UpkvVaG6qCOvUEYRoyG3yeRzr
t6zIGmAk0/Jpw1PwSeaaoqXzeAADY/89Pgect7LMm6Ar36ck4sd1wKUi+CuZgybZ
cIJQdzBMhY65SjSzrU7kTpEK4TK09IK9nxudEwIDAQABAoIBAFhzbp+olim1e8ZR
VoNJdt8+yBULjOaE6uJZSWW3d5n8SU4wl171AAZDp2zcYq9z0bqW+oTwzIJ/sf3t
Pm46gfNSOZQU2uMIPAHS3ZGQLfGCAWWcj6YwFGys9RCYPA19XL35E/3i/Tannu7X
X4QIRFbEoU8RkZOU43I19baC3luSRgdr6mE8wEV6WHzhIZP7eOYfX040oR0XAqnZ
DMje+4ET5gTNSgQhKaIRHTjBlUA16EXkAl8ocaOiCfp6stZiQlr2C0WoOA8ZOQKy
NlfiFFbLqVycZpR/UCp4yUsE4wnby7ck7WSMtArb56ko3iHOhcM4LNElDTg5sRL2
mh5gDpECgYEA+/SQkrXc62RkEgHguxtVr16SHDOheRa/oNBbi0ZoL+ojGkyMyAh5
hQxV20s9+vuPzvv28zCcgjbPyS24RM+LL1B7qBQQfmBzb0wILzYrPPb37pR6AVs7
XwPjmCtmxrVmtSSWKvqY3Fae3ejEDkFs7gjzfvhWfZpsvpTc0Ytei1sCgYEAz1Lp
WIWYQ/U70CbnTwxjTA1RjocOSCTpQV8rDXexIxPRnp3gnucEKxgeDodeloPNonxl
2Vsy1TiInvDFWyCGKcXcZZHp3j28dpLUxpa9M8LbScy9jZHSV356uYNGCZXIM/mi
NBfDAaJt7FPZmyjRgg9kmJJhPifGhLWHLyONOqkCgYEAza7oeyxGDlAlNWIdEQIO
oByHEMjBcDW2+FQ/92Hh2gO85lJJt17bvVbFnEE/du34h1PAVOWBTvfqBuTxAhOg
H18Ho73FfTXF5rzeDZSeFaXT3wuM0iClRjrJiMcdnugl0YjtomZzdaStCqFjs/OL
NoNOLIAVM3JmherGnbW11/MCgYB3dwtHGxQ2dKVWuFQpVLYTKMmKG4C7SamvJaul
Qwcrc0wi3k6EwhHA01DehlqW2LQxoQT/TnHoM39mNs9CR2eHwp/RV1cv3NswaEN7
e3jizrGVwQio/xH5oMQPCfndpBWM/Zfd9KNF2dcFivulUMwI6d3JnO+z5S+bYQ7Y
tt+2oQKBgF5l3fWEoN1ax/kQGKd1htsbijHS8Dbv21a2adpf0qXF1igGxxStxrB2
4gisy4MkFg7RgLMmMOB3Y3XvZNuFe2PRJtinM/3/BNK9DvEYTTGzgKhRsXGLQGDg
8m3IOHzujegA0/V23Fq+oZalRZN4Typ+VcoV3fuDOaUrxs4MKi7U
-----END RSA PRIVATE KEY-----
