Certificate:
    Data:
        Version: 3 (0x2)
        Serial Number:
            b4:7e:b2:de:87:00:03:0d
        Signature Algorithm: sha1WithRSAEncryption
        Issuer: C=US, ST=California, O=M2Crypto, CN=Heikki Toivonen
        Validity
            Not Before: Nov 21 15:35:24 2012 GMT
            Not After : Jan  8 15:35:24 2023 GMT
        Subject: C=US, ST=California, O=M2Crypto, CN=X509
        Subject Public Key Info:
            Public Key Algorithm: rsaEncryption
                Public-Key: (1024 bit)
                Modulus:
                    00:ba:3b:21:75:3a:4f:78:99:14:56:ae:68:36:6f:
                    52:f3:01:a4:c4:0c:cc:27:eb:e2:c5:e1:78:19:ba:
                    d4:47:05:35:df:d4:1c:10:8b:70:33:a2:f3:27:31:
                    9e:1d:b7:2d:f8:ff:01:4a:4b:90:a7:29:4e:79:09:
                    ad:df:3a:85:96:fc:fd:cb:ea:8c:37:b6:e4:b2:67:
                    ec:fd:20:e1:0c:45:98:42:31:80:74:0e:78:fa:58:
                    09:0d:2e:e5:82:38:8d:30:23:80:12:0c:40:c7:3f:
                    26:94:e9:5b:43:f1:64:e2:1e:5d:fc:77:92:93:b4:
                    4f:5f:8d:88:a0:03:b7:5e:a1
                Exponent: 65537 (0x10001)
        X509v3 extensions:
            X509v3 Basic Constraints: 
                CA:FALSE
            Netscape Comment: 
                OpenSSL Generated Certificate
            X509v3 Subject Key Identifier: 
                E8:C1:6E:60:19:13:82:40:65:B9:67:26:B7:8E:D6:7C:EE:33:8D:72
            X509v3 Authority Key Identifier: 
                keyid:80:D9:6A:1E:15:FE:8B:61:51:62:60:4D:B3:CC:95:44:78:2D:89:E6

    Signature Algorithm: sha1WithRSAEncryption
        cf:57:f4:f6:7d:be:e0:32:d1:44:ba:15:f7:44:2c:69:df:54:
        a1:09:28:7f:7f:66:37:db:71:6f:2f:4b:b0:61:f5:96:09:56:
        50:e4:14:87:81:70:93:bb:9d:1e:8a:65:06:e8:67:c5:fb:24:
        b1:17:b5:36:83:cb:53:88:0e:55:5c:91:80:26:56:f2:0b:50:
        19:86:6c:3b:1b:37:64:e1:64:2b:18:c3:5b:aa:d3:78:84:75:
        4f:59:c4:46:6e:9a:fb:a2:3b:86:79:87:09:a7:a6:e3:c8:91:
        5d:ea:2c:76:d4:ff:a3:3e:ad:6c:bd:bb:e2:c1:1d:1e:d3:81:
        6c:4a
-----BEGIN CERTIFICATE-----
MIICjDCCAfWgAwIBAgIJALR+st6HAAMNMA0GCSqGSIb3DQEBBQUAME8xCzAJBgNV
BAYTAlVTMRMwEQYDVQQIDApDYWxpZm9ybmlhMREwDwYDVQQKDAhNMkNyeXB0bzEY
MBYGA1UEAwwPSGVpa2tpIFRvaXZvbmVuMB4XDTEyMTEyMTE1MzUyNFoXDTIzMDEw
ODE1MzUyNFowRDELMAkGA1UEBhMCVVMxEzARBgNVBAgMCkNhbGlmb3JuaWExETAP
BgNVBAoMCE0yQ3J5cHRvMQ0wCwYDVQQDDARYNTA5MIGfMA0GCSqGSIb3DQEBAQUA
A4GNADCBiQKBgQC6OyF1Ok94mRRWrmg2b1LzAaTEDMwn6+LF4XgZutRHBTXf1BwQ
i3AzovMnMZ4dty34/wFKS5CnKU55Ca3fOoWW/P3L6ow3tuSyZ+z9IOEMRZhCMYB0
Dnj6WAkNLuWCOI0wI4ASDEDHPyaU6VtD8WTiHl38d5KTtE9fjYigA7deoQIDAQAB
o3sweTAJBgNVHRMEAjAAMCwGCWCGSAGG+EIBDQQfFh1PcGVuU1NMIEdlbmVyYXRl
ZCBDZXJ0aWZpY2F0ZTAdBgNVHQ4EFgQU6MFuYBkTgkBluWcmt47WfO4zjXIwHwYD
VR0jBBgwFoAUgNlqHhX+i2FRYmBNs8yVRHgtieYwDQYJKoZIhvcNAQEFBQADgYEA
z1f09n2+4DLRRLoV90Qsad9UoQkof39mN9txby9LsGH1lglWUOQUh4Fwk7udHopl
BuhnxfsksRe1NoPLU4gOVVyRgCZW8gtQGYZsOxs3ZOFkKxjDW6rTeIR1T1nERm6a
+6I7hnmHCaem48iRXeosdtT/oz6tbL274sEdHtOBbEo=
-----END CERTIFICATE-----
-----BEGIN RSA PRIVATE KEY-----
MIICXgIBAAKBgQC6OyF1Ok94mRRWrmg2b1LzAaTEDMwn6+LF4XgZutRHBTXf1BwQ
i3AzovMnMZ4dty34/wFKS5CnKU55Ca3fOoWW/P3L6ow3tuSyZ+z9IOEMRZhCMYB0
Dnj6WAkNLuWCOI0wI4ASDEDHPyaU6VtD8WTiHl38d5KTtE9fjYigA7deoQIDAQAB
AoGBALdK8ZBGtuc0i28RM2K4SQUCDiAjlGCKa2Vll+aDGuFXwIGva3vhMaqw6+8c
h8ope6cBnUx5eUL9hc3dd/Moz0dxM34p2zu/fZbiFD2yrKlkVSXHv6YobYhUagod
htPwb+tQOrQqYpHZ/zPeVkAa/EfmM88RD603nlFHbCz5PpFBAkEA5HWMYUaXD+1M
kX3YjXy3ESmKr3zPdbQkw6tDiQ6ijl1jUX+b4BKGSgINFYsmXlaFYM/GeJWJ0z64
BiPkSnhueQJBANCuYg0ykia6miTUWzXv3i8r8voVt593KmrAf23JwUM+jZnAd4yl
xwSHkJSX5Ualp1cYDfKD9wzKj8vjq4mCx2kCQQCYlJFvHnAhqQDsYrpQtKynf7Eq
RxdfqzKqpCV00htrLZ/5fFqkqnqZzwjiDI9RjkOCRwJs4qKsPUU2hJ4hxpExAkEA
llzwfb3wnUNbiioRRr39hFPQke5QDvEYeS8XIo57WO6brSuHeKqCynq77LW+GLeH
6jOE6Te5LVhPYIQ9t6mp8QJAKPE2g1wc0kmlzaOkNrlj67PPcRKqRVqL1RWIaSz9
Dh3KWyvOnOQAKbShI9EbXqdINKM7JxJAhSL4LPBd3ejxSA==
-----END RSA PRIVATE KEY-----
